
Aula7.elf:     file format elf32-avr

Sections:
Idx Name          Size      VMA       LMA       File off  Algn
  0 .data         00000000  00800100  00800100  0000181c  2**0
                  ALLOC, LOAD, DATA
  1 .text         000000e0  00000000  00000000  00000134  2**1
                  CONTENTS, ALLOC, LOAD, READONLY, CODE
  2 .bss          00000001  00800100  00800100  0000181c  2**0
                  ALLOC
  3 .comment      0000005b  00000000  00000000  0000181c  2**0
                  CONTENTS, READONLY
  4 .debug_aranges 000000c0  00000000  00000000  00001877  2**0
                  CONTENTS, READONLY, DEBUGGING
  5 .debug_info   000024ba  00000000  00000000  00001937  2**0
                  CONTENTS, READONLY, DEBUGGING
  6 .debug_abbrev 0000098c  00000000  00000000  00003df1  2**0
                  CONTENTS, READONLY, DEBUGGING
  7 .debug_line   00000dcd  00000000  00000000  0000477d  2**0
                  CONTENTS, READONLY, DEBUGGING
  8 .debug_frame  00000244  00000000  00000000  0000554c  2**2
                  CONTENTS, READONLY, DEBUGGING
  9 .debug_str    00000258  00000000  00000000  00005790  2**0
                  CONTENTS, READONLY, DEBUGGING
 10 .debug_loc    00000d24  00000000  00000000  000059e8  2**0
                  CONTENTS, READONLY, DEBUGGING
 11 .debug_ranges 00000090  00000000  00000000  0000670c  2**0
                  CONTENTS, READONLY, DEBUGGING
 12 .text         00000004  000016c2  000016c2  000017f6  2**1
                  CONTENTS, ALLOC, LOAD, READONLY, CODE
 13 .note.gnu.avr.deviceinfo 00000040  00000000  00000000  0000679c  2**2
                  CONTENTS, READONLY, DEBUGGING
 14 .text.store   00000094  000011ce  000011ce  00001302  2**1
                  CONTENTS, ALLOC, LOAD, READONLY, CODE
 15 .text.readKeyboard 0000048e  0000014e  0000014e  00000282  2**1
                  CONTENTS, ALLOC, LOAD, READONLY, CODE
 16 .text.__vector_11 0000005a  00001342  00001342  00001476  2**1
                  CONTENTS, ALLOC, LOAD, READONLY, CODE
 17 .progmemx.data 00000064  000000e0  000000e0  00000214  2**0
                  CONTENTS, ALLOC, LOAD, READONLY, PROGMEMX
 18 .text.menu    00000154  00000db0  00000db0  00000ee4  2**1
                  CONTENTS, ALLOC, LOAD, READONLY, CODE
 19 .text.startGame 0000018e  00000c22  00000c22  00000d56  2**1
                  CONTENTS, ALLOC, LOAD, READONLY, CODE
 20 .text.clearNumbers 00000046  0000139c  0000139c  000014d0  2**1
                  CONTENTS, ALLOC, LOAD, READONLY, CODE
 21 .text.gameRun 000001fe  00000a24  00000a24  00000b58  2**1
                  CONTENTS, ALLOC, LOAD, READONLY, CODE
 22 .text.main    0000009c  00001132  00001132  00001266  2**1
                  CONTENTS, ALLOC, LOAD, READONLY, CODE
 23 .bss.ctrl.2464 00000001  00800122  00800122  0000181c  2**0
                  ALLOC
 24 .bss.pC_ready.2461 00000001  00800123  00800123  0000181c  2**0
                  ALLOC
 25 .bss.pB_ready.2460 00000001  00800124  00800124  0000181c  2**0
                  ALLOC
 26 .bss.rowD_flag4.2441 00000001  00800125  00800125  0000181c  2**0
                  ALLOC
 27 .bss.rowC_flag4.2440 00000001  00800126  00800126  0000181c  2**0
                  ALLOC
 28 .bss.rowB_flag4.2439 00000001  00800127  00800127  0000181c  2**0
                  ALLOC
 29 .bss.rowA_flag4.2438 00000001  00800128  00800128  0000181c  2**0
                  ALLOC
 30 .bss.rowD_flag3.2437 00000001  00800129  00800129  0000181c  2**0
                  ALLOC
 31 .bss.rowC_flag3.2436 00000001  0080012a  0080012a  0000181c  2**0
                  ALLOC
 32 .bss.rowB_flag3.2435 00000001  0080012b  0080012b  0000181c  2**0
                  ALLOC
 33 .bss.rowA_flag3.2434 00000001  0080012c  0080012c  0000181c  2**0
                  ALLOC
 34 .bss.rowD_flag2.2433 00000001  0080012d  0080012d  0000181c  2**0
                  ALLOC
 35 .bss.rowC_flag2.2432 00000001  0080012e  0080012e  0000181c  2**0
                  ALLOC
 36 .bss.rowB_flag2.2431 00000001  0080012f  0080012f  0000181c  2**0
                  ALLOC
 37 .bss.rowA_flag2.2430 00000001  00800130  00800130  0000181c  2**0
                  ALLOC
 38 .bss.rowD_flag1.2429 00000001  00800131  00800131  0000181c  2**0
                  ALLOC
 39 .bss.rowC_flag1.2428 00000001  00800132  00800132  0000181c  2**0
                  ALLOC
 40 .bss.rowB_flag1.2427 00000001  00800133  00800133  0000181c  2**0
                  ALLOC
 41 .bss.rowA_flag1.2426 00000001  00800134  00800134  0000181c  2**0
                  ALLOC
 42 .data.control.2425 00000001  00800135  0000014d  00000281  2**0
                  CONTENTS, ALLOC, LOAD, DATA
 43 .bss.player   00000001  00800136  00800136  0000181c  2**0
                  ALLOC
 44 .bss.gameMode 00000001  00800137  00800137  0000181c  2**0
                  ALLOC
 45 .bss.senhaC   00000001  00800138  00800138  0000181c  2**0
                  ALLOC
 46 .bss.senhaB   00000001  00800139  00800139  0000181c  2**0
                  ALLOC
 47 .bss.digito   00000001  0080013a  0080013a  0000181c  2**0
                  ALLOC
 48 .bss.numero   00000001  0080013b  0080013b  0000181c  2**0
                  ALLOC
 49 .bss.algarismo 00000001  0080013c  0080013c  0000181c  2**0
                  ALLOC
 50 .data.idCompC 00000004  00800101  000016c6  000017fa  2**0
                  CONTENTS, ALLOC, LOAD, DATA
 51 .data.idCompB 00000003  0080010d  000016d2  00001806  2**0
                  CONTENTS, ALLOC, LOAD, DATA
 52 .data.idRespostaC 00000003  00800110  000016d5  00001809  2**0
                  CONTENTS, ALLOC, LOAD, DATA
 53 .data.idSenhaC 00000003  00800113  000016d8  0000180c  2**0
                  CONTENTS, ALLOC, LOAD, DATA
 54 .data.idRespostaB 00000003  00800116  000016db  0000180f  2**0
                  CONTENTS, ALLOC, LOAD, DATA
 55 .data.idSenhaB 00000003  00800119  000016de  00001812  2**0
                  CONTENTS, ALLOC, LOAD, DATA
 56 .data.idTituloC 00000003  0080011c  000016e1  00001815  2**0
                  CONTENTS, ALLOC, LOAD, DATA
 57 .data.idTituloB 00000003  0080011f  000016e4  00001818  2**0
                  CONTENTS, ALLOC, LOAD, DATA
 58 .progmemx.data 00000009  00000144  00000144  00000278  2**0
                  CONTENTS, ALLOC, LOAD, READONLY, PROGMEMX
 59 .text.Nextion_sendString 000000be  00000f04  00000f04  00001038  2**1
                  CONTENTS, ALLOC, LOAD, READONLY, CODE
 60 .text.Nextion_sendInt 00000068  000012da  000012da  0000140e  2**1
                  CONTENTS, ALLOC, LOAD, READONLY, CODE
 61 .data.endLine 00000004  00800105  000016ca  000017fe  2**0
                  CONTENTS, ALLOC, LOAD, DATA
 62 .text.__vector_20 0000001e  000015e8  000015e8  0000171c  2**1
                  CONTENTS, ALLOC, LOAD, READONLY, CODE
 63 .text.USART_Init 00000016  00001676  00001676  000017aa  2**1
                  CONTENTS, ALLOC, LOAD, READONLY, CODE
 64 .text.USART_Transmit 0000001a  00001642  00001642  00001776  2**1
                  CONTENTS, ALLOC, LOAD, READONLY, CODE
 65 .text.USART_SendString 0000002c  0000156c  0000156c  000016a0  2**1
                  CONTENTS, ALLOC, LOAD, READONLY, CODE
 66 .data.uart_tx_done 00000001  0080013d  000016e7  0000181b  2**0
                  CONTENTS, ALLOC, LOAD, DATA
 67 .text.libgcc.div 00000028  00001598  00001598  000016cc  2**1
                  CONTENTS, ALLOC, LOAD, READONLY, CODE
 68 .text.libgcc  0000001a  0000165c  0000165c  00001790  2**1
                  CONTENTS, ALLOC, LOAD, READONLY, CODE
 69 .text.libgcc.div 00000028  000015c0  000015c0  000016f4  2**1
                  CONTENTS, ALLOC, LOAD, READONLY, CODE
 70 .data         00000004  00800109  000016ce  00001802  2**0
                  CONTENTS, ALLOC, LOAD, DATA
 71 .text.avrlibc 000000b4  0000107e  0000107e  000011b2  2**1
                  CONTENTS, ALLOC, LOAD, READONLY, CODE
 72 .text.avrlibc 0000002e  00001510  00001510  00001644  2**1
                  CONTENTS, ALLOC, LOAD, READONLY, CODE
 73 .text.avrlibc 0000001e  00001606  00001606  0000173a  2**1
                  CONTENTS, ALLOC, LOAD, READONLY, CODE
 74 .text.avrlibc 00000046  000013e2  000013e2  00001516  2**1
                  CONTENTS, ALLOC, LOAD, READONLY, CODE
 75 .text.avrlibc 00000448  000005dc  000005dc  00000710  2**1
                  CONTENTS, ALLOC, LOAD, READONLY, CODE
 76 .text.avrlibc 00000036  000014a4  000014a4  000015d8  2**1
                  CONTENTS, ALLOC, LOAD, READONLY, CODE
 77 .text.avrlibc 00000078  00001262  00001262  00001396  2**1
                  CONTENTS, ALLOC, LOAD, READONLY, CODE
 78 .text.avrlibc 000000bc  00000fc2  00000fc2  000010f6  2**1
                  CONTENTS, ALLOC, LOAD, READONLY, CODE
 79 .text.libgcc.div 0000002e  0000153e  0000153e  00001672  2**1
                  CONTENTS, ALLOC, LOAD, READONLY, CODE
 80 .text.libgcc.div 00000010  000016a2  000016a2  000017d6  2**1
                  CONTENTS, ALLOC, LOAD, READONLY, CODE
 81 .text.libgcc.mul 00000016  0000168c  0000168c  000017c0  2**1
                  CONTENTS, ALLOC, LOAD, READONLY, CODE
 82 .text.libgcc.mul 00000010  000016b2  000016b2  000017e6  2**1
                  CONTENTS, ALLOC, LOAD, READONLY, CODE
 83 .text.libgcc.prologue 00000038  0000146c  0000146c  000015a0  2**1
                  CONTENTS, ALLOC, LOAD, READONLY, CODE
 84 .text.libgcc.prologue 00000036  000014da  000014da  0000160e  2**1
                  CONTENTS, ALLOC, LOAD, READONLY, CODE
 85 .text.libgcc.div 00000044  00001428  00001428  0000155c  2**1
                  CONTENTS, ALLOC, LOAD, READONLY, CODE
 86 .text.libgcc.mul 0000001e  00001624  00001624  00001758  2**1
                  CONTENTS, ALLOC, LOAD, READONLY, CODE

Disassembly of section .text:

00000000 <__vectors>:
   0:	0c 94 46 00 	jmp	0x8c	; 0x8c <__ctors_end>
   4:	0c 94 61 0b 	jmp	0x16c2	; 0x16c2 <__bad_interrupt>
   8:	0c 94 61 0b 	jmp	0x16c2	; 0x16c2 <__bad_interrupt>
   c:	0c 94 61 0b 	jmp	0x16c2	; 0x16c2 <__bad_interrupt>
  10:	0c 94 61 0b 	jmp	0x16c2	; 0x16c2 <__bad_interrupt>
  14:	0c 94 61 0b 	jmp	0x16c2	; 0x16c2 <__bad_interrupt>
  18:	0c 94 61 0b 	jmp	0x16c2	; 0x16c2 <__bad_interrupt>
  1c:	0c 94 61 0b 	jmp	0x16c2	; 0x16c2 <__bad_interrupt>
  20:	0c 94 61 0b 	jmp	0x16c2	; 0x16c2 <__bad_interrupt>
  24:	0c 94 61 0b 	jmp	0x16c2	; 0x16c2 <__bad_interrupt>
  28:	0c 94 61 0b 	jmp	0x16c2	; 0x16c2 <__bad_interrupt>
  2c:	0c 94 a1 09 	jmp	0x1342	; 0x1342 <__vector_11>
  30:	0c 94 61 0b 	jmp	0x16c2	; 0x16c2 <__bad_interrupt>
  34:	0c 94 61 0b 	jmp	0x16c2	; 0x16c2 <__bad_interrupt>
  38:	0c 94 61 0b 	jmp	0x16c2	; 0x16c2 <__bad_interrupt>
  3c:	0c 94 61 0b 	jmp	0x16c2	; 0x16c2 <__bad_interrupt>
  40:	0c 94 61 0b 	jmp	0x16c2	; 0x16c2 <__bad_interrupt>
  44:	0c 94 61 0b 	jmp	0x16c2	; 0x16c2 <__bad_interrupt>
  48:	0c 94 61 0b 	jmp	0x16c2	; 0x16c2 <__bad_interrupt>
  4c:	0c 94 61 0b 	jmp	0x16c2	; 0x16c2 <__bad_interrupt>
  50:	0c 94 f4 0a 	jmp	0x15e8	; 0x15e8 <__vector_20>
  54:	0c 94 61 0b 	jmp	0x16c2	; 0x16c2 <__bad_interrupt>
  58:	0c 94 61 0b 	jmp	0x16c2	; 0x16c2 <__bad_interrupt>
  5c:	0c 94 61 0b 	jmp	0x16c2	; 0x16c2 <__bad_interrupt>
  60:	0c 94 61 0b 	jmp	0x16c2	; 0x16c2 <__bad_interrupt>
  64:	0c 94 61 0b 	jmp	0x16c2	; 0x16c2 <__bad_interrupt>

00000068 <.dinit>:
  68:	01 00       	.word	0x0001	; ????
  6a:	01 01       	movw	r0, r2
  6c:	80 01       	movw	r16, r0
  6e:	01 01       	movw	r0, r2
  70:	22 00       	.word	0x0022	; ????
  72:	16 c6       	rjmp	.+3116   	; 0xca0 <startGame+0x7e>
  74:	01 22       	and	r0, r17
  76:	01 35       	cpi	r16, 0x51	; 81
  78:	80 01       	movw	r16, r0
  7a:	35 01       	movw	r6, r10
  7c:	36 00       	.word	0x0036	; ????
  7e:	01 4d       	sbci	r16, 0xD1	; 209
  80:	01 36       	cpi	r16, 0x61	; 97
  82:	01 3d       	cpi	r16, 0xD1	; 209
  84:	80 01       	movw	r16, r0
  86:	3d 01       	movw	r6, r26
  88:	3e 00       	.word	0x003e	; ????
  8a:	16 e7       	ldi	r17, 0x76	; 118

0000008c <__ctors_end>:
  8c:	11 24       	eor	r1, r1
  8e:	1f be       	out	0x3f, r1	; 63
  90:	cf ef       	ldi	r28, 0xFF	; 255
  92:	d8 e0       	ldi	r29, 0x08	; 8
  94:	de bf       	out	0x3e, r29	; 62
  96:	cd bf       	out	0x3d, r28	; 61

00000098 <__do_copy_data>:
  98:	e8 e6       	ldi	r30, 0x68	; 104
  9a:	f0 e0       	ldi	r31, 0x00	; 0
  9c:	40 e0       	ldi	r20, 0x00	; 0
  9e:	17 c0       	rjmp	.+46     	; 0xce <__do_clear_bss+0x8>
  a0:	b5 91       	lpm	r27, Z+
  a2:	a5 91       	lpm	r26, Z+
  a4:	35 91       	lpm	r19, Z+
  a6:	25 91       	lpm	r18, Z+
  a8:	05 91       	lpm	r16, Z+
  aa:	07 fd       	sbrc	r16, 7
  ac:	0c c0       	rjmp	.+24     	; 0xc6 <__do_clear_bss>
  ae:	95 91       	lpm	r25, Z+
  b0:	85 91       	lpm	r24, Z+
  b2:	ef 01       	movw	r28, r30
  b4:	f9 2f       	mov	r31, r25
  b6:	e8 2f       	mov	r30, r24
  b8:	05 90       	lpm	r0, Z+
  ba:	0d 92       	st	X+, r0
  bc:	a2 17       	cp	r26, r18
  be:	b3 07       	cpc	r27, r19
  c0:	d9 f7       	brne	.-10     	; 0xb8 <__do_copy_data+0x20>
  c2:	fe 01       	movw	r30, r28
  c4:	04 c0       	rjmp	.+8      	; 0xce <__do_clear_bss+0x8>

000000c6 <__do_clear_bss>:
  c6:	1d 92       	st	X+, r1
  c8:	a2 17       	cp	r26, r18
  ca:	b3 07       	cpc	r27, r19
  cc:	e1 f7       	brne	.-8      	; 0xc6 <__do_clear_bss>
  ce:	ec 38       	cpi	r30, 0x8C	; 140
  d0:	f4 07       	cpc	r31, r20
  d2:	31 f7       	brne	.-52     	; 0xa0 <__do_copy_data+0x8>
  d4:	0e 94 99 08 	call	0x1132	; 0x1132 <main>
  d8:	0c 94 6e 00 	jmp	0xdc	; 0xdc <_exit>

000000dc <_exit>:
  dc:	f8 94       	cli

000000de <__stop_program>:
  de:	ff cf       	rjmp	.-2      	; 0xde <__stop_program>

Disassembly of section .text:

000016c2 <__bad_interrupt>:
    16c2:	0c 94 00 00 	jmp	0	; 0x0 <__TEXT_REGION_ORIGIN__>

Disassembly of section .text.store:

000011ce <store>:
	
}

void store(char value)                   
{   
	TIMSK1 = 0;                          
    11ce:	10 92 6f 00 	sts	0x006F, r1	; 0x80006f <__TEXT_REGION_LENGTH__+0x7f806f>
	
	
	algarismo = value;
    11d2:	80 93 3c 01 	sts	0x013C, r24	; 0x80013c <algarismo>
	
	if(gameMode)
    11d6:	90 91 37 01 	lds	r25, 0x0137	; 0x800137 <gameMode>
    11da:	99 23       	and	r25, r25
    11dc:	79 f1       	breq	.+94     	; 0x123c <store+0x6e>
	{
		if(!digito)
    11de:	90 91 3a 01 	lds	r25, 0x013A	; 0x80013a <digito>
    11e2:	91 11       	cpse	r25, r1
    11e4:	0d c0       	rjmp	.+26     	; 0x1200 <store+0x32>
		{
			if(value<10)
    11e6:	8a 30       	cpi	r24, 0x0A	; 10
    11e8:	b0 f4       	brcc	.+44     	; 0x1216 <store+0x48>
			{
				numero = (value*10);
    11ea:	88 0f       	add	r24, r24
    11ec:	98 2f       	mov	r25, r24
    11ee:	99 0f       	add	r25, r25
    11f0:	99 0f       	add	r25, r25
    11f2:	89 0f       	add	r24, r25
    11f4:	80 93 3b 01 	sts	0x013B, r24	; 0x80013b <numero>
				digito = 1;
    11f8:	81 e0       	ldi	r24, 0x01	; 1
    11fa:	80 93 3a 01 	sts	0x013A, r24	; 0x80013a <digito>
    11fe:	0b c0       	rjmp	.+22     	; 0x1216 <store+0x48>
			}
		}else{
			if(value<10)
    1200:	8a 30       	cpi	r24, 0x0A	; 10
    1202:	48 f4       	brcc	.+18     	; 0x1216 <store+0x48>
			{
				numero += algarismo;
    1204:	90 91 3c 01 	lds	r25, 0x013C	; 0x80013c <algarismo>
    1208:	80 91 3b 01 	lds	r24, 0x013B	; 0x80013b <numero>
    120c:	89 0f       	add	r24, r25
    120e:	80 93 3b 01 	sts	0x013B, r24	; 0x80013b <numero>
				digito  = 0;
    1212:	10 92 3a 01 	sts	0x013A, r1	; 0x80013a <digito>
			}
		}
	
		if(!player)
    1216:	80 91 36 01 	lds	r24, 0x0136	; 0x800136 <player>
    121a:	81 11       	cpse	r24, r1
    121c:	08 c0       	rjmp	.+16     	; 0x122e <store+0x60>
		{
			Nextion_sendInt(idRespostaB,numero);	
    121e:	60 91 3b 01 	lds	r22, 0x013B	; 0x80013b <numero>
    1222:	70 e0       	ldi	r23, 0x00	; 0
    1224:	86 e1       	ldi	r24, 0x16	; 22
    1226:	91 e0       	ldi	r25, 0x01	; 1
    1228:	0e 94 6d 09 	call	0x12da	; 0x12da <Nextion_sendInt>
    122c:	07 c0       	rjmp	.+14     	; 0x123c <store+0x6e>
		}else{
			Nextion_sendInt(idRespostaC,numero);
    122e:	60 91 3b 01 	lds	r22, 0x013B	; 0x80013b <numero>
    1232:	70 e0       	ldi	r23, 0x00	; 0
    1234:	80 e1       	ldi	r24, 0x10	; 16
    1236:	91 e0       	ldi	r25, 0x01	; 1
    1238:	0e 94 6d 09 	call	0x12da	; 0x12da <Nextion_sendInt>
		}
	}
	                       
	set_bit(PORTB,D13);
    123c:	85 b1       	in	r24, 0x05	; 5
    123e:	80 62       	ori	r24, 0x20	; 32
    1240:	85 b9       	out	0x05, r24	; 5
	#else
		//round up by default
		__ticks_dc = (uint32_t)(ceil(fabs(__tmp)));
	#endif

	__builtin_avr_delay_cycles(__ticks_dc);
    1242:	2f ef       	ldi	r18, 0xFF	; 255
    1244:	81 ee       	ldi	r24, 0xE1	; 225
    1246:	94 e0       	ldi	r25, 0x04	; 4
    1248:	21 50       	subi	r18, 0x01	; 1
    124a:	80 40       	sbci	r24, 0x00	; 0
    124c:	90 40       	sbci	r25, 0x00	; 0
    124e:	e1 f7       	brne	.-8      	; 0x1248 <store+0x7a>
    1250:	00 c0       	rjmp	.+0      	; 0x1252 <store+0x84>
    1252:	00 00       	nop
	_delay_ms(100);
	reset_bit(PORTB,D13);
    1254:	85 b1       	in	r24, 0x05	; 5
    1256:	8f 7d       	andi	r24, 0xDF	; 223
    1258:	85 b9       	out	0x05, r24	; 5
	
	
	TIMSK1 = (1 << OCIE1A);
    125a:	82 e0       	ldi	r24, 0x02	; 2
    125c:	80 93 6f 00 	sts	0x006F, r24	; 0x80006f <__TEXT_REGION_LENGTH__+0x7f806f>
    1260:	08 95       	ret

Disassembly of section .text.readKeyboard:

0000014e <readKeyboard>:
	static char rowA_flag4 = 0x00,
				rowB_flag4 = 0x00,
				rowC_flag4 = 0x00,
				rowD_flag4 = 0x00;
	
	if(state_bit(PIND,col_1) && control == 0x01)
 14e:	4a 9b       	sbis	0x09, 2	; 9
 150:	90 c0       	rjmp	.+288    	; 0x272 <readKeyboard+0x124>
 152:	80 91 35 01 	lds	r24, 0x0135	; 0x800135 <control.2425>
 156:	81 30       	cpi	r24, 0x01	; 1
 158:	09 f0       	breq	.+2      	; 0x15c <readKeyboard+0xe>
 15a:	8b c0       	rjmp	.+278    	; 0x272 <readKeyboard+0x124>
	{
		control = 0x02;
 15c:	82 e0       	ldi	r24, 0x02	; 2
 15e:	80 93 35 01 	sts	0x0135, r24	; 0x800135 <control.2425>
		reset_bit(PORTD,col_1);
 162:	8b b1       	in	r24, 0x0b	; 11
 164:	8b 7f       	andi	r24, 0xFB	; 251
 166:	8b b9       	out	0x0b, r24	; 11
		set_bit(PORTD,col_2);
 168:	8b b1       	in	r24, 0x0b	; 11
 16a:	88 60       	ori	r24, 0x08	; 8
 16c:	8b b9       	out	0x0b, r24	; 11
		set_bit(PORTD,col_3);
 16e:	8b b1       	in	r24, 0x0b	; 11
 170:	80 61       	ori	r24, 0x10	; 16
 172:	8b b9       	out	0x0b, r24	; 11
		set_bit(PORTD,col_4);
 174:	8b b1       	in	r24, 0x0b	; 11
 176:	80 62       	ori	r24, 0x20	; 32
 178:	8b b9       	out	0x0b, r24	; 11
		
		if(!(state_bit(PIND,row_A)) && !rowA_flag1)	  
 17a:	4e 99       	sbic	0x09, 6	; 9
 17c:	08 c0       	rjmp	.+16     	; 0x18e <readKeyboard+0x40>
 17e:	80 91 34 01 	lds	r24, 0x0134	; 0x800134 <rowA_flag1.2426>
 182:	81 11       	cpse	r24, r1
 184:	04 c0       	rjmp	.+8      	; 0x18e <readKeyboard+0x40>
		{
			rowA_flag1 = 1;
 186:	81 e0       	ldi	r24, 0x01	; 1
 188:	80 93 34 01 	sts	0x0134, r24	; 0x800134 <rowA_flag1.2426>
 18c:	3d c0       	rjmp	.+122    	; 0x208 <readKeyboard+0xba>
			
		}else if(state_bit(PIND,row_A) && rowA_flag1)
 18e:	4e 9b       	sbis	0x09, 6	; 9
 190:	13 c0       	rjmp	.+38     	; 0x1b8 <readKeyboard+0x6a>
 192:	80 91 34 01 	lds	r24, 0x0134	; 0x800134 <rowA_flag1.2426>
 196:	88 23       	and	r24, r24
 198:	79 f0       	breq	.+30     	; 0x1b8 <readKeyboard+0x6a>
		{
			rowA_flag1 = 0;
 19a:	10 92 34 01 	sts	0x0134, r1	; 0x800134 <rowA_flag1.2426>
			store(1);
 19e:	81 e0       	ldi	r24, 0x01	; 1
 1a0:	0e 94 e7 08 	call	0x11ce	; 0x11ce <store>
 1a4:	2f ef       	ldi	r18, 0xFF	; 255
 1a6:	80 e7       	ldi	r24, 0x70	; 112
 1a8:	92 e0       	ldi	r25, 0x02	; 2
 1aa:	21 50       	subi	r18, 0x01	; 1
 1ac:	80 40       	sbci	r24, 0x00	; 0
 1ae:	90 40       	sbci	r25, 0x00	; 0
 1b0:	e1 f7       	brne	.-8      	; 0x1aa <readKeyboard+0x5c>
 1b2:	00 c0       	rjmp	.+0      	; 0x1b4 <readKeyboard+0x66>
 1b4:	00 00       	nop
 1b6:	28 c0       	rjmp	.+80     	; 0x208 <readKeyboard+0xba>
			_delay_ms(50);
		}else if(!(state_bit(PIND,row_B)) && !rowB_flag1)
 1b8:	4f 99       	sbic	0x09, 7	; 9
 1ba:	08 c0       	rjmp	.+16     	; 0x1cc <readKeyboard+0x7e>
 1bc:	80 91 33 01 	lds	r24, 0x0133	; 0x800133 <rowB_flag1.2427>
 1c0:	81 11       	cpse	r24, r1
 1c2:	04 c0       	rjmp	.+8      	; 0x1cc <readKeyboard+0x7e>
		{
			rowB_flag1 = 1;
 1c4:	81 e0       	ldi	r24, 0x01	; 1
 1c6:	80 93 33 01 	sts	0x0133, r24	; 0x800133 <rowB_flag1.2427>
 1ca:	1e c0       	rjmp	.+60     	; 0x208 <readKeyboard+0xba>
			
		}else if(state_bit(PIND,row_B) && rowB_flag1)
 1cc:	4f 9b       	sbis	0x09, 7	; 9
 1ce:	13 c0       	rjmp	.+38     	; 0x1f6 <readKeyboard+0xa8>
 1d0:	80 91 33 01 	lds	r24, 0x0133	; 0x800133 <rowB_flag1.2427>
 1d4:	88 23       	and	r24, r24
 1d6:	79 f0       	breq	.+30     	; 0x1f6 <readKeyboard+0xa8>
		{
			rowB_flag1 = 0;
 1d8:	10 92 33 01 	sts	0x0133, r1	; 0x800133 <rowB_flag1.2427>
			store(4);
 1dc:	84 e0       	ldi	r24, 0x04	; 4
 1de:	0e 94 e7 08 	call	0x11ce	; 0x11ce <store>
 1e2:	2f ef       	ldi	r18, 0xFF	; 255
 1e4:	80 e7       	ldi	r24, 0x70	; 112
 1e6:	92 e0       	ldi	r25, 0x02	; 2
 1e8:	21 50       	subi	r18, 0x01	; 1
 1ea:	80 40       	sbci	r24, 0x00	; 0
 1ec:	90 40       	sbci	r25, 0x00	; 0
 1ee:	e1 f7       	brne	.-8      	; 0x1e8 <readKeyboard+0x9a>
 1f0:	00 c0       	rjmp	.+0      	; 0x1f2 <readKeyboard+0xa4>
 1f2:	00 00       	nop
 1f4:	09 c0       	rjmp	.+18     	; 0x208 <readKeyboard+0xba>
			_delay_ms(50);
		}else if(!(state_bit(PINB,row_C)) && !rowC_flag1)
 1f6:	18 99       	sbic	0x03, 0	; 3
 1f8:	07 c0       	rjmp	.+14     	; 0x208 <readKeyboard+0xba>
 1fa:	80 91 32 01 	lds	r24, 0x0132	; 0x800132 <rowC_flag1.2428>
 1fe:	81 11       	cpse	r24, r1
 200:	03 c0       	rjmp	.+6      	; 0x208 <readKeyboard+0xba>
		{
			rowC_flag1 = 1;
 202:	81 e0       	ldi	r24, 0x01	; 1
 204:	80 93 32 01 	sts	0x0132, r24	; 0x800132 <rowC_flag1.2428>
			
		}if(state_bit(PINB,row_C) && rowC_flag1)
 208:	18 9b       	sbis	0x03, 0	; 3
 20a:	13 c0       	rjmp	.+38     	; 0x232 <readKeyboard+0xe4>
 20c:	80 91 32 01 	lds	r24, 0x0132	; 0x800132 <rowC_flag1.2428>
 210:	88 23       	and	r24, r24
 212:	79 f0       	breq	.+30     	; 0x232 <readKeyboard+0xe4>
		{
			rowC_flag1 = 0;
 214:	10 92 32 01 	sts	0x0132, r1	; 0x800132 <rowC_flag1.2428>
			store(7);
 218:	87 e0       	ldi	r24, 0x07	; 7
 21a:	0e 94 e7 08 	call	0x11ce	; 0x11ce <store>
 21e:	2f ef       	ldi	r18, 0xFF	; 255
 220:	80 e7       	ldi	r24, 0x70	; 112
 222:	92 e0       	ldi	r25, 0x02	; 2
 224:	21 50       	subi	r18, 0x01	; 1
 226:	80 40       	sbci	r24, 0x00	; 0
 228:	90 40       	sbci	r25, 0x00	; 0
 22a:	e1 f7       	brne	.-8      	; 0x224 <readKeyboard+0xd6>
 22c:	00 c0       	rjmp	.+0      	; 0x22e <readKeyboard+0xe0>
 22e:	00 00       	nop
 230:	08 95       	ret
			_delay_ms(50);
		}else if(!(state_bit(PINB,row_D)) && !rowD_flag1)
 232:	19 99       	sbic	0x03, 1	; 3
 234:	08 c0       	rjmp	.+16     	; 0x246 <readKeyboard+0xf8>
 236:	80 91 31 01 	lds	r24, 0x0131	; 0x800131 <rowD_flag1.2429>
 23a:	81 11       	cpse	r24, r1
 23c:	04 c0       	rjmp	.+8      	; 0x246 <readKeyboard+0xf8>
		{
			rowD_flag1 = 1;
 23e:	81 e0       	ldi	r24, 0x01	; 1
 240:	80 93 31 01 	sts	0x0131, r24	; 0x800131 <rowD_flag1.2429>
 244:	08 95       	ret
			
		}else if(state_bit(PINB,row_D) && rowD_flag1)
 246:	19 9b       	sbis	0x03, 1	; 3
 248:	c8 c1       	rjmp	.+912    	; 0x5da <__EEPROM_REGION_LENGTH__+0x1da>
 24a:	80 91 31 01 	lds	r24, 0x0131	; 0x800131 <rowD_flag1.2429>
 24e:	88 23       	and	r24, r24
 250:	09 f4       	brne	.+2      	; 0x254 <readKeyboard+0x106>
 252:	c3 c1       	rjmp	.+902    	; 0x5da <__EEPROM_REGION_LENGTH__+0x1da>
		{
			rowD_flag1 = 0;
 254:	10 92 31 01 	sts	0x0131, r1	; 0x800131 <rowD_flag1.2429>
			store(11);
 258:	8b e0       	ldi	r24, 0x0B	; 11
 25a:	0e 94 e7 08 	call	0x11ce	; 0x11ce <store>
 25e:	2f ef       	ldi	r18, 0xFF	; 255
 260:	80 e7       	ldi	r24, 0x70	; 112
 262:	92 e0       	ldi	r25, 0x02	; 2
 264:	21 50       	subi	r18, 0x01	; 1
 266:	80 40       	sbci	r24, 0x00	; 0
 268:	90 40       	sbci	r25, 0x00	; 0
 26a:	e1 f7       	brne	.-8      	; 0x264 <readKeyboard+0x116>
 26c:	00 c0       	rjmp	.+0      	; 0x26e <readKeyboard+0x120>
 26e:	00 00       	nop
 270:	08 95       	ret
			_delay_ms(50);
		}
		
	}else if(state_bit(PIND,col_2) && control == 0x02)
 272:	4b 9b       	sbis	0x09, 3	; 9
 274:	90 c0       	rjmp	.+288    	; 0x396 <readKeyboard+0x248>
 276:	80 91 35 01 	lds	r24, 0x0135	; 0x800135 <control.2425>
 27a:	82 30       	cpi	r24, 0x02	; 2
 27c:	09 f0       	breq	.+2      	; 0x280 <readKeyboard+0x132>
 27e:	8b c0       	rjmp	.+278    	; 0x396 <readKeyboard+0x248>
	{
		control = 0x03;
 280:	83 e0       	ldi	r24, 0x03	; 3
 282:	80 93 35 01 	sts	0x0135, r24	; 0x800135 <control.2425>
		set_bit(PORTD,col_1);
 286:	8b b1       	in	r24, 0x0b	; 11
 288:	84 60       	ori	r24, 0x04	; 4
 28a:	8b b9       	out	0x0b, r24	; 11
		reset_bit(PORTD,col_2);
 28c:	8b b1       	in	r24, 0x0b	; 11
 28e:	87 7f       	andi	r24, 0xF7	; 247
 290:	8b b9       	out	0x0b, r24	; 11
		set_bit(PORTD,col_3);
 292:	8b b1       	in	r24, 0x0b	; 11
 294:	80 61       	ori	r24, 0x10	; 16
 296:	8b b9       	out	0x0b, r24	; 11
		set_bit(PORTD,col_4);
 298:	8b b1       	in	r24, 0x0b	; 11
 29a:	80 62       	ori	r24, 0x20	; 32
 29c:	8b b9       	out	0x0b, r24	; 11
		
				if(!(state_bit(PIND,row_A)) && !rowA_flag2)
 29e:	4e 99       	sbic	0x09, 6	; 9
 2a0:	08 c0       	rjmp	.+16     	; 0x2b2 <readKeyboard+0x164>
 2a2:	80 91 30 01 	lds	r24, 0x0130	; 0x800130 <rowA_flag2.2430>
 2a6:	81 11       	cpse	r24, r1
 2a8:	04 c0       	rjmp	.+8      	; 0x2b2 <readKeyboard+0x164>
				{
					rowA_flag2 = 1;
 2aa:	81 e0       	ldi	r24, 0x01	; 1
 2ac:	80 93 30 01 	sts	0x0130, r24	; 0x800130 <rowA_flag2.2430>
 2b0:	3d c0       	rjmp	.+122    	; 0x32c <readKeyboard+0x1de>
					
				}else if(state_bit(PIND,row_A) && rowA_flag2)
 2b2:	4e 9b       	sbis	0x09, 6	; 9
 2b4:	13 c0       	rjmp	.+38     	; 0x2dc <readKeyboard+0x18e>
 2b6:	80 91 30 01 	lds	r24, 0x0130	; 0x800130 <rowA_flag2.2430>
 2ba:	88 23       	and	r24, r24
 2bc:	79 f0       	breq	.+30     	; 0x2dc <readKeyboard+0x18e>
				{
					rowA_flag2 = 0;
 2be:	10 92 30 01 	sts	0x0130, r1	; 0x800130 <rowA_flag2.2430>
					store(2);
 2c2:	82 e0       	ldi	r24, 0x02	; 2
 2c4:	0e 94 e7 08 	call	0x11ce	; 0x11ce <store>
 2c8:	2f ef       	ldi	r18, 0xFF	; 255
 2ca:	80 e7       	ldi	r24, 0x70	; 112
 2cc:	92 e0       	ldi	r25, 0x02	; 2
 2ce:	21 50       	subi	r18, 0x01	; 1
 2d0:	80 40       	sbci	r24, 0x00	; 0
 2d2:	90 40       	sbci	r25, 0x00	; 0
 2d4:	e1 f7       	brne	.-8      	; 0x2ce <readKeyboard+0x180>
 2d6:	00 c0       	rjmp	.+0      	; 0x2d8 <readKeyboard+0x18a>
 2d8:	00 00       	nop
 2da:	28 c0       	rjmp	.+80     	; 0x32c <readKeyboard+0x1de>
					_delay_ms(50);
				}else if(!(state_bit(PIND,row_B)) && !rowB_flag2)
 2dc:	4f 99       	sbic	0x09, 7	; 9
 2de:	08 c0       	rjmp	.+16     	; 0x2f0 <readKeyboard+0x1a2>
 2e0:	80 91 2f 01 	lds	r24, 0x012F	; 0x80012f <rowB_flag2.2431>
 2e4:	81 11       	cpse	r24, r1
 2e6:	04 c0       	rjmp	.+8      	; 0x2f0 <readKeyboard+0x1a2>
				{
					rowB_flag2 = 1;
 2e8:	81 e0       	ldi	r24, 0x01	; 1
 2ea:	80 93 2f 01 	sts	0x012F, r24	; 0x80012f <rowB_flag2.2431>
 2ee:	1e c0       	rjmp	.+60     	; 0x32c <readKeyboard+0x1de>
					
				}else if(state_bit(PIND,row_B) && rowB_flag2)
 2f0:	4f 9b       	sbis	0x09, 7	; 9
 2f2:	13 c0       	rjmp	.+38     	; 0x31a <readKeyboard+0x1cc>
 2f4:	80 91 2f 01 	lds	r24, 0x012F	; 0x80012f <rowB_flag2.2431>
 2f8:	88 23       	and	r24, r24
 2fa:	79 f0       	breq	.+30     	; 0x31a <readKeyboard+0x1cc>
				{
					rowB_flag2 = 0;
 2fc:	10 92 2f 01 	sts	0x012F, r1	; 0x80012f <rowB_flag2.2431>
					store(5);
 300:	85 e0       	ldi	r24, 0x05	; 5
 302:	0e 94 e7 08 	call	0x11ce	; 0x11ce <store>
 306:	2f ef       	ldi	r18, 0xFF	; 255
 308:	80 e7       	ldi	r24, 0x70	; 112
 30a:	92 e0       	ldi	r25, 0x02	; 2
 30c:	21 50       	subi	r18, 0x01	; 1
 30e:	80 40       	sbci	r24, 0x00	; 0
 310:	90 40       	sbci	r25, 0x00	; 0
 312:	e1 f7       	brne	.-8      	; 0x30c <readKeyboard+0x1be>
 314:	00 c0       	rjmp	.+0      	; 0x316 <readKeyboard+0x1c8>
 316:	00 00       	nop
 318:	09 c0       	rjmp	.+18     	; 0x32c <readKeyboard+0x1de>
					_delay_ms(50);
				}else if(!(state_bit(PINB,row_C)) && !rowC_flag2)
 31a:	18 99       	sbic	0x03, 0	; 3
 31c:	07 c0       	rjmp	.+14     	; 0x32c <readKeyboard+0x1de>
 31e:	80 91 2e 01 	lds	r24, 0x012E	; 0x80012e <rowC_flag2.2432>
 322:	81 11       	cpse	r24, r1
 324:	03 c0       	rjmp	.+6      	; 0x32c <readKeyboard+0x1de>
				{
					rowC_flag2 = 1;
 326:	81 e0       	ldi	r24, 0x01	; 1
 328:	80 93 2e 01 	sts	0x012E, r24	; 0x80012e <rowC_flag2.2432>
					
				}if(state_bit(PINB,row_C) && rowC_flag2)
 32c:	18 9b       	sbis	0x03, 0	; 3
 32e:	13 c0       	rjmp	.+38     	; 0x356 <readKeyboard+0x208>
 330:	80 91 2e 01 	lds	r24, 0x012E	; 0x80012e <rowC_flag2.2432>
 334:	88 23       	and	r24, r24
 336:	79 f0       	breq	.+30     	; 0x356 <readKeyboard+0x208>
				{
					rowC_flag2 = 0;
 338:	10 92 2e 01 	sts	0x012E, r1	; 0x80012e <rowC_flag2.2432>
					store(8);
 33c:	88 e0       	ldi	r24, 0x08	; 8
 33e:	0e 94 e7 08 	call	0x11ce	; 0x11ce <store>
 342:	2f ef       	ldi	r18, 0xFF	; 255
 344:	80 e7       	ldi	r24, 0x70	; 112
 346:	92 e0       	ldi	r25, 0x02	; 2
 348:	21 50       	subi	r18, 0x01	; 1
 34a:	80 40       	sbci	r24, 0x00	; 0
 34c:	90 40       	sbci	r25, 0x00	; 0
 34e:	e1 f7       	brne	.-8      	; 0x348 <readKeyboard+0x1fa>
 350:	00 c0       	rjmp	.+0      	; 0x352 <readKeyboard+0x204>
 352:	00 00       	nop
 354:	08 95       	ret
					_delay_ms(50);
				}else if(!(state_bit(PINB,row_D)) && !rowD_flag2)
 356:	19 99       	sbic	0x03, 1	; 3
 358:	08 c0       	rjmp	.+16     	; 0x36a <readKeyboard+0x21c>
 35a:	80 91 2d 01 	lds	r24, 0x012D	; 0x80012d <rowD_flag2.2433>
 35e:	81 11       	cpse	r24, r1
 360:	04 c0       	rjmp	.+8      	; 0x36a <readKeyboard+0x21c>
				{
					rowD_flag2 = 1;
 362:	81 e0       	ldi	r24, 0x01	; 1
 364:	80 93 2d 01 	sts	0x012D, r24	; 0x80012d <rowD_flag2.2433>
 368:	08 95       	ret
					
				}else if(state_bit(PINB,row_D) && rowD_flag2)
 36a:	19 9b       	sbis	0x03, 1	; 3
 36c:	36 c1       	rjmp	.+620    	; 0x5da <__EEPROM_REGION_LENGTH__+0x1da>
 36e:	80 91 2d 01 	lds	r24, 0x012D	; 0x80012d <rowD_flag2.2433>
 372:	88 23       	and	r24, r24
 374:	09 f4       	brne	.+2      	; 0x378 <readKeyboard+0x22a>
 376:	31 c1       	rjmp	.+610    	; 0x5da <__EEPROM_REGION_LENGTH__+0x1da>
				{
					rowD_flag2 = 0;
 378:	10 92 2d 01 	sts	0x012D, r1	; 0x80012d <rowD_flag2.2433>
					store(0);
 37c:	80 e0       	ldi	r24, 0x00	; 0
 37e:	0e 94 e7 08 	call	0x11ce	; 0x11ce <store>
 382:	2f ef       	ldi	r18, 0xFF	; 255
 384:	80 e7       	ldi	r24, 0x70	; 112
 386:	92 e0       	ldi	r25, 0x02	; 2
 388:	21 50       	subi	r18, 0x01	; 1
 38a:	80 40       	sbci	r24, 0x00	; 0
 38c:	90 40       	sbci	r25, 0x00	; 0
 38e:	e1 f7       	brne	.-8      	; 0x388 <readKeyboard+0x23a>
 390:	00 c0       	rjmp	.+0      	; 0x392 <readKeyboard+0x244>
 392:	00 00       	nop
 394:	08 95       	ret
					_delay_ms(50);
				}
				
	}else if(state_bit(PIND,col_3) && control == 0x03)
 396:	4c 9b       	sbis	0x09, 4	; 9
 398:	90 c0       	rjmp	.+288    	; 0x4ba <__EEPROM_REGION_LENGTH__+0xba>
 39a:	80 91 35 01 	lds	r24, 0x0135	; 0x800135 <control.2425>
 39e:	83 30       	cpi	r24, 0x03	; 3
 3a0:	09 f0       	breq	.+2      	; 0x3a4 <readKeyboard+0x256>
 3a2:	8b c0       	rjmp	.+278    	; 0x4ba <__EEPROM_REGION_LENGTH__+0xba>
	{
		control = 0x04;
 3a4:	84 e0       	ldi	r24, 0x04	; 4
 3a6:	80 93 35 01 	sts	0x0135, r24	; 0x800135 <control.2425>
		set_bit(PORTD,col_1);
 3aa:	8b b1       	in	r24, 0x0b	; 11
 3ac:	84 60       	ori	r24, 0x04	; 4
 3ae:	8b b9       	out	0x0b, r24	; 11
		set_bit(PORTD,col_2);
 3b0:	8b b1       	in	r24, 0x0b	; 11
 3b2:	88 60       	ori	r24, 0x08	; 8
 3b4:	8b b9       	out	0x0b, r24	; 11
		reset_bit(PORTD,col_3);
 3b6:	8b b1       	in	r24, 0x0b	; 11
 3b8:	8f 7e       	andi	r24, 0xEF	; 239
 3ba:	8b b9       	out	0x0b, r24	; 11
		set_bit(PORTD,col_4);
 3bc:	8b b1       	in	r24, 0x0b	; 11
 3be:	80 62       	ori	r24, 0x20	; 32
 3c0:	8b b9       	out	0x0b, r24	; 11

				if(!(state_bit(PIND,row_A)) && !rowA_flag3)
 3c2:	4e 99       	sbic	0x09, 6	; 9
 3c4:	08 c0       	rjmp	.+16     	; 0x3d6 <readKeyboard+0x288>
 3c6:	80 91 2c 01 	lds	r24, 0x012C	; 0x80012c <rowA_flag3.2434>
 3ca:	81 11       	cpse	r24, r1
 3cc:	04 c0       	rjmp	.+8      	; 0x3d6 <readKeyboard+0x288>
				{
					rowA_flag3 = 1;
 3ce:	81 e0       	ldi	r24, 0x01	; 1
 3d0:	80 93 2c 01 	sts	0x012C, r24	; 0x80012c <rowA_flag3.2434>
 3d4:	3d c0       	rjmp	.+122    	; 0x450 <__EEPROM_REGION_LENGTH__+0x50>
					
				}else if(state_bit(PIND,row_A) && rowA_flag3)
 3d6:	4e 9b       	sbis	0x09, 6	; 9
 3d8:	13 c0       	rjmp	.+38     	; 0x400 <__EEPROM_REGION_LENGTH__>
 3da:	80 91 2c 01 	lds	r24, 0x012C	; 0x80012c <rowA_flag3.2434>
 3de:	88 23       	and	r24, r24
 3e0:	79 f0       	breq	.+30     	; 0x400 <__EEPROM_REGION_LENGTH__>
				{
					rowA_flag3 = 0;
 3e2:	10 92 2c 01 	sts	0x012C, r1	; 0x80012c <rowA_flag3.2434>
					store(3);
 3e6:	83 e0       	ldi	r24, 0x03	; 3
 3e8:	0e 94 e7 08 	call	0x11ce	; 0x11ce <store>
 3ec:	2f ef       	ldi	r18, 0xFF	; 255
 3ee:	80 e7       	ldi	r24, 0x70	; 112
 3f0:	92 e0       	ldi	r25, 0x02	; 2
 3f2:	21 50       	subi	r18, 0x01	; 1
 3f4:	80 40       	sbci	r24, 0x00	; 0
 3f6:	90 40       	sbci	r25, 0x00	; 0
 3f8:	e1 f7       	brne	.-8      	; 0x3f2 <readKeyboard+0x2a4>
 3fa:	00 c0       	rjmp	.+0      	; 0x3fc <readKeyboard+0x2ae>
 3fc:	00 00       	nop
 3fe:	28 c0       	rjmp	.+80     	; 0x450 <__EEPROM_REGION_LENGTH__+0x50>
					_delay_ms(50);
				}else if(!(state_bit(PIND,row_B)) && !rowB_flag3)
 400:	4f 99       	sbic	0x09, 7	; 9
 402:	08 c0       	rjmp	.+16     	; 0x414 <__EEPROM_REGION_LENGTH__+0x14>
 404:	80 91 2b 01 	lds	r24, 0x012B	; 0x80012b <rowB_flag3.2435>
 408:	81 11       	cpse	r24, r1
 40a:	04 c0       	rjmp	.+8      	; 0x414 <__EEPROM_REGION_LENGTH__+0x14>
				{
					rowB_flag3 = 1;
 40c:	81 e0       	ldi	r24, 0x01	; 1
 40e:	80 93 2b 01 	sts	0x012B, r24	; 0x80012b <rowB_flag3.2435>
 412:	1e c0       	rjmp	.+60     	; 0x450 <__EEPROM_REGION_LENGTH__+0x50>
					
				}else if(state_bit(PIND,row_B) && rowB_flag3)
 414:	4f 9b       	sbis	0x09, 7	; 9
 416:	13 c0       	rjmp	.+38     	; 0x43e <__EEPROM_REGION_LENGTH__+0x3e>
 418:	80 91 2b 01 	lds	r24, 0x012B	; 0x80012b <rowB_flag3.2435>
 41c:	88 23       	and	r24, r24
 41e:	79 f0       	breq	.+30     	; 0x43e <__EEPROM_REGION_LENGTH__+0x3e>
				{
					rowB_flag3 = 0;
 420:	10 92 2b 01 	sts	0x012B, r1	; 0x80012b <rowB_flag3.2435>
					store(6);
 424:	86 e0       	ldi	r24, 0x06	; 6
 426:	0e 94 e7 08 	call	0x11ce	; 0x11ce <store>
 42a:	2f ef       	ldi	r18, 0xFF	; 255
 42c:	80 e7       	ldi	r24, 0x70	; 112
 42e:	92 e0       	ldi	r25, 0x02	; 2
 430:	21 50       	subi	r18, 0x01	; 1
 432:	80 40       	sbci	r24, 0x00	; 0
 434:	90 40       	sbci	r25, 0x00	; 0
 436:	e1 f7       	brne	.-8      	; 0x430 <__EEPROM_REGION_LENGTH__+0x30>
 438:	00 c0       	rjmp	.+0      	; 0x43a <__EEPROM_REGION_LENGTH__+0x3a>
 43a:	00 00       	nop
 43c:	09 c0       	rjmp	.+18     	; 0x450 <__EEPROM_REGION_LENGTH__+0x50>
					_delay_ms(50);
				}else if(!(state_bit(PINB,row_C)) && !rowC_flag3)
 43e:	18 99       	sbic	0x03, 0	; 3
 440:	07 c0       	rjmp	.+14     	; 0x450 <__EEPROM_REGION_LENGTH__+0x50>
 442:	80 91 2a 01 	lds	r24, 0x012A	; 0x80012a <rowC_flag3.2436>
 446:	81 11       	cpse	r24, r1
 448:	03 c0       	rjmp	.+6      	; 0x450 <__EEPROM_REGION_LENGTH__+0x50>
				{
					rowC_flag3 = 1;
 44a:	81 e0       	ldi	r24, 0x01	; 1
 44c:	80 93 2a 01 	sts	0x012A, r24	; 0x80012a <rowC_flag3.2436>
					
				}if(state_bit(PINB,row_C) && rowC_flag3)
 450:	18 9b       	sbis	0x03, 0	; 3
 452:	13 c0       	rjmp	.+38     	; 0x47a <__EEPROM_REGION_LENGTH__+0x7a>
 454:	80 91 2a 01 	lds	r24, 0x012A	; 0x80012a <rowC_flag3.2436>
 458:	88 23       	and	r24, r24
 45a:	79 f0       	breq	.+30     	; 0x47a <__EEPROM_REGION_LENGTH__+0x7a>
				{
					rowC_flag3 = 0;
 45c:	10 92 2a 01 	sts	0x012A, r1	; 0x80012a <rowC_flag3.2436>
					store(9);
 460:	89 e0       	ldi	r24, 0x09	; 9
 462:	0e 94 e7 08 	call	0x11ce	; 0x11ce <store>
 466:	2f ef       	ldi	r18, 0xFF	; 255
 468:	80 e7       	ldi	r24, 0x70	; 112
 46a:	92 e0       	ldi	r25, 0x02	; 2
 46c:	21 50       	subi	r18, 0x01	; 1
 46e:	80 40       	sbci	r24, 0x00	; 0
 470:	90 40       	sbci	r25, 0x00	; 0
 472:	e1 f7       	brne	.-8      	; 0x46c <__EEPROM_REGION_LENGTH__+0x6c>
 474:	00 c0       	rjmp	.+0      	; 0x476 <__EEPROM_REGION_LENGTH__+0x76>
 476:	00 00       	nop
 478:	08 95       	ret
					_delay_ms(50);
				}else if(!(state_bit(PINB,row_D)) && !rowD_flag3)
 47a:	19 99       	sbic	0x03, 1	; 3
 47c:	08 c0       	rjmp	.+16     	; 0x48e <__EEPROM_REGION_LENGTH__+0x8e>
 47e:	80 91 29 01 	lds	r24, 0x0129	; 0x800129 <rowD_flag3.2437>
 482:	81 11       	cpse	r24, r1
 484:	04 c0       	rjmp	.+8      	; 0x48e <__EEPROM_REGION_LENGTH__+0x8e>
				{
					rowD_flag3 = 1;
 486:	81 e0       	ldi	r24, 0x01	; 1
 488:	80 93 29 01 	sts	0x0129, r24	; 0x800129 <rowD_flag3.2437>
 48c:	08 95       	ret
					
				}else if(state_bit(PINB,row_D) && rowD_flag3)
 48e:	19 9b       	sbis	0x03, 1	; 3
 490:	a4 c0       	rjmp	.+328    	; 0x5da <__EEPROM_REGION_LENGTH__+0x1da>
 492:	80 91 29 01 	lds	r24, 0x0129	; 0x800129 <rowD_flag3.2437>
 496:	88 23       	and	r24, r24
 498:	09 f4       	brne	.+2      	; 0x49c <__EEPROM_REGION_LENGTH__+0x9c>
 49a:	9f c0       	rjmp	.+318    	; 0x5da <__EEPROM_REGION_LENGTH__+0x1da>
				{
					rowD_flag3 = 0;
 49c:	10 92 29 01 	sts	0x0129, r1	; 0x800129 <rowD_flag3.2437>
					store(12);
 4a0:	8c e0       	ldi	r24, 0x0C	; 12
 4a2:	0e 94 e7 08 	call	0x11ce	; 0x11ce <store>
 4a6:	2f ef       	ldi	r18, 0xFF	; 255
 4a8:	80 e7       	ldi	r24, 0x70	; 112
 4aa:	92 e0       	ldi	r25, 0x02	; 2
 4ac:	21 50       	subi	r18, 0x01	; 1
 4ae:	80 40       	sbci	r24, 0x00	; 0
 4b0:	90 40       	sbci	r25, 0x00	; 0
 4b2:	e1 f7       	brne	.-8      	; 0x4ac <__EEPROM_REGION_LENGTH__+0xac>
 4b4:	00 c0       	rjmp	.+0      	; 0x4b6 <__EEPROM_REGION_LENGTH__+0xb6>
 4b6:	00 00       	nop
 4b8:	08 95       	ret
					_delay_ms(50);
				}
		
	}else if(state_bit(PIND,col_4) && control == 0x04)
 4ba:	4d 9b       	sbis	0x09, 5	; 9
 4bc:	8e c0       	rjmp	.+284    	; 0x5da <__EEPROM_REGION_LENGTH__+0x1da>
 4be:	80 91 35 01 	lds	r24, 0x0135	; 0x800135 <control.2425>
 4c2:	84 30       	cpi	r24, 0x04	; 4
 4c4:	09 f0       	breq	.+2      	; 0x4c8 <__EEPROM_REGION_LENGTH__+0xc8>
 4c6:	89 c0       	rjmp	.+274    	; 0x5da <__EEPROM_REGION_LENGTH__+0x1da>
	{
		control = 0x01;
 4c8:	81 e0       	ldi	r24, 0x01	; 1
 4ca:	80 93 35 01 	sts	0x0135, r24	; 0x800135 <control.2425>
		set_bit(PORTD,col_1);
 4ce:	8b b1       	in	r24, 0x0b	; 11
 4d0:	84 60       	ori	r24, 0x04	; 4
 4d2:	8b b9       	out	0x0b, r24	; 11
		set_bit(PORTD,col_2);
 4d4:	8b b1       	in	r24, 0x0b	; 11
 4d6:	88 60       	ori	r24, 0x08	; 8
 4d8:	8b b9       	out	0x0b, r24	; 11
		set_bit(PORTD,col_3);
 4da:	8b b1       	in	r24, 0x0b	; 11
 4dc:	80 61       	ori	r24, 0x10	; 16
 4de:	8b b9       	out	0x0b, r24	; 11
		reset_bit(PORTD,col_4);
 4e0:	8b b1       	in	r24, 0x0b	; 11
 4e2:	8f 7d       	andi	r24, 0xDF	; 223
 4e4:	8b b9       	out	0x0b, r24	; 11
	
				if(!(state_bit(PIND,row_A)) && !rowA_flag4)
 4e6:	4e 99       	sbic	0x09, 6	; 9
 4e8:	08 c0       	rjmp	.+16     	; 0x4fa <__EEPROM_REGION_LENGTH__+0xfa>
 4ea:	80 91 28 01 	lds	r24, 0x0128	; 0x800128 <rowA_flag4.2438>
 4ee:	81 11       	cpse	r24, r1
 4f0:	04 c0       	rjmp	.+8      	; 0x4fa <__EEPROM_REGION_LENGTH__+0xfa>
				{
					rowA_flag4 = 1;
 4f2:	81 e0       	ldi	r24, 0x01	; 1
 4f4:	80 93 28 01 	sts	0x0128, r24	; 0x800128 <rowA_flag4.2438>
 4f8:	3d c0       	rjmp	.+122    	; 0x574 <__EEPROM_REGION_LENGTH__+0x174>
					
				}else if(state_bit(PIND,row_A) && rowA_flag4)
 4fa:	4e 9b       	sbis	0x09, 6	; 9
 4fc:	13 c0       	rjmp	.+38     	; 0x524 <__EEPROM_REGION_LENGTH__+0x124>
 4fe:	80 91 28 01 	lds	r24, 0x0128	; 0x800128 <rowA_flag4.2438>
 502:	88 23       	and	r24, r24
 504:	79 f0       	breq	.+30     	; 0x524 <__EEPROM_REGION_LENGTH__+0x124>
				{
					rowA_flag4 = 0;
 506:	10 92 28 01 	sts	0x0128, r1	; 0x800128 <rowA_flag4.2438>
					store(17);
 50a:	81 e1       	ldi	r24, 0x11	; 17
 50c:	0e 94 e7 08 	call	0x11ce	; 0x11ce <store>
 510:	2f ef       	ldi	r18, 0xFF	; 255
 512:	80 e7       	ldi	r24, 0x70	; 112
 514:	92 e0       	ldi	r25, 0x02	; 2
 516:	21 50       	subi	r18, 0x01	; 1
 518:	80 40       	sbci	r24, 0x00	; 0
 51a:	90 40       	sbci	r25, 0x00	; 0
 51c:	e1 f7       	brne	.-8      	; 0x516 <__EEPROM_REGION_LENGTH__+0x116>
 51e:	00 c0       	rjmp	.+0      	; 0x520 <__EEPROM_REGION_LENGTH__+0x120>
 520:	00 00       	nop
 522:	28 c0       	rjmp	.+80     	; 0x574 <__EEPROM_REGION_LENGTH__+0x174>
					_delay_ms(50);
				}else if(!(state_bit(PIND,row_B)) && !rowB_flag4)
 524:	4f 99       	sbic	0x09, 7	; 9
 526:	08 c0       	rjmp	.+16     	; 0x538 <__EEPROM_REGION_LENGTH__+0x138>
 528:	80 91 27 01 	lds	r24, 0x0127	; 0x800127 <rowB_flag4.2439>
 52c:	81 11       	cpse	r24, r1
 52e:	04 c0       	rjmp	.+8      	; 0x538 <__EEPROM_REGION_LENGTH__+0x138>
				{
					rowB_flag4 = 1;
 530:	81 e0       	ldi	r24, 0x01	; 1
 532:	80 93 27 01 	sts	0x0127, r24	; 0x800127 <rowB_flag4.2439>
 536:	1e c0       	rjmp	.+60     	; 0x574 <__EEPROM_REGION_LENGTH__+0x174>
					
				}else if(state_bit(PIND,row_B) && rowB_flag4)
 538:	4f 9b       	sbis	0x09, 7	; 9
 53a:	13 c0       	rjmp	.+38     	; 0x562 <__EEPROM_REGION_LENGTH__+0x162>
 53c:	80 91 27 01 	lds	r24, 0x0127	; 0x800127 <rowB_flag4.2439>
 540:	88 23       	and	r24, r24
 542:	79 f0       	breq	.+30     	; 0x562 <__EEPROM_REGION_LENGTH__+0x162>
				{
					rowB_flag4 = 0;
 544:	10 92 27 01 	sts	0x0127, r1	; 0x800127 <rowB_flag4.2439>
					store(14);
 548:	8e e0       	ldi	r24, 0x0E	; 14
 54a:	0e 94 e7 08 	call	0x11ce	; 0x11ce <store>
 54e:	2f ef       	ldi	r18, 0xFF	; 255
 550:	80 e7       	ldi	r24, 0x70	; 112
 552:	92 e0       	ldi	r25, 0x02	; 2
 554:	21 50       	subi	r18, 0x01	; 1
 556:	80 40       	sbci	r24, 0x00	; 0
 558:	90 40       	sbci	r25, 0x00	; 0
 55a:	e1 f7       	brne	.-8      	; 0x554 <__EEPROM_REGION_LENGTH__+0x154>
 55c:	00 c0       	rjmp	.+0      	; 0x55e <__EEPROM_REGION_LENGTH__+0x15e>
 55e:	00 00       	nop
 560:	09 c0       	rjmp	.+18     	; 0x574 <__EEPROM_REGION_LENGTH__+0x174>
					_delay_ms(50);
				}else if(!(state_bit(PINB,row_C)) && !rowC_flag4)
 562:	18 99       	sbic	0x03, 0	; 3
 564:	07 c0       	rjmp	.+14     	; 0x574 <__EEPROM_REGION_LENGTH__+0x174>
 566:	80 91 26 01 	lds	r24, 0x0126	; 0x800126 <rowC_flag4.2440>
 56a:	81 11       	cpse	r24, r1
 56c:	03 c0       	rjmp	.+6      	; 0x574 <__EEPROM_REGION_LENGTH__+0x174>
				{
					rowC_flag4 = 1;
 56e:	81 e0       	ldi	r24, 0x01	; 1
 570:	80 93 26 01 	sts	0x0126, r24	; 0x800126 <rowC_flag4.2440>
					
				}if(state_bit(PINB,row_C) && rowC_flag4)
 574:	18 9b       	sbis	0x03, 0	; 3
 576:	13 c0       	rjmp	.+38     	; 0x59e <__EEPROM_REGION_LENGTH__+0x19e>
 578:	80 91 26 01 	lds	r24, 0x0126	; 0x800126 <rowC_flag4.2440>
 57c:	88 23       	and	r24, r24
 57e:	79 f0       	breq	.+30     	; 0x59e <__EEPROM_REGION_LENGTH__+0x19e>
				{
					rowC_flag4 = 0;
 580:	10 92 26 01 	sts	0x0126, r1	; 0x800126 <rowC_flag4.2440>
					store(15);
 584:	8f e0       	ldi	r24, 0x0F	; 15
 586:	0e 94 e7 08 	call	0x11ce	; 0x11ce <store>
 58a:	2f ef       	ldi	r18, 0xFF	; 255
 58c:	80 e7       	ldi	r24, 0x70	; 112
 58e:	92 e0       	ldi	r25, 0x02	; 2
 590:	21 50       	subi	r18, 0x01	; 1
 592:	80 40       	sbci	r24, 0x00	; 0
 594:	90 40       	sbci	r25, 0x00	; 0
 596:	e1 f7       	brne	.-8      	; 0x590 <__EEPROM_REGION_LENGTH__+0x190>
 598:	00 c0       	rjmp	.+0      	; 0x59a <__EEPROM_REGION_LENGTH__+0x19a>
 59a:	00 00       	nop
 59c:	08 95       	ret
					_delay_ms(50);
					
				}else if(!(state_bit(PINB,row_D)) && !rowD_flag4)
 59e:	19 99       	sbic	0x03, 1	; 3
 5a0:	08 c0       	rjmp	.+16     	; 0x5b2 <__EEPROM_REGION_LENGTH__+0x1b2>
 5a2:	80 91 25 01 	lds	r24, 0x0125	; 0x800125 <rowD_flag4.2441>
 5a6:	81 11       	cpse	r24, r1
 5a8:	04 c0       	rjmp	.+8      	; 0x5b2 <__EEPROM_REGION_LENGTH__+0x1b2>
				{
					rowD_flag4 = 1;
 5aa:	81 e0       	ldi	r24, 0x01	; 1
 5ac:	80 93 25 01 	sts	0x0125, r24	; 0x800125 <rowD_flag4.2441>
 5b0:	08 95       	ret
					
				}else if(state_bit(PINB,row_D) && rowD_flag4)
 5b2:	19 9b       	sbis	0x03, 1	; 3
 5b4:	12 c0       	rjmp	.+36     	; 0x5da <__EEPROM_REGION_LENGTH__+0x1da>
 5b6:	80 91 25 01 	lds	r24, 0x0125	; 0x800125 <rowD_flag4.2441>
 5ba:	88 23       	and	r24, r24
 5bc:	71 f0       	breq	.+28     	; 0x5da <__EEPROM_REGION_LENGTH__+0x1da>
				{
					rowD_flag4 = 0;
 5be:	10 92 25 01 	sts	0x0125, r1	; 0x800125 <rowD_flag4.2441>
					store(16);
 5c2:	80 e1       	ldi	r24, 0x10	; 16
 5c4:	0e 94 e7 08 	call	0x11ce	; 0x11ce <store>
 5c8:	2f ef       	ldi	r18, 0xFF	; 255
 5ca:	80 e7       	ldi	r24, 0x70	; 112
 5cc:	92 e0       	ldi	r25, 0x02	; 2
 5ce:	21 50       	subi	r18, 0x01	; 1
 5d0:	80 40       	sbci	r24, 0x00	; 0
 5d2:	90 40       	sbci	r25, 0x00	; 0
 5d4:	e1 f7       	brne	.-8      	; 0x5ce <__EEPROM_REGION_LENGTH__+0x1ce>
 5d6:	00 c0       	rjmp	.+0      	; 0x5d8 <__EEPROM_REGION_LENGTH__+0x1d8>
 5d8:	00 00       	nop
 5da:	08 95       	ret

Disassembly of section .text.__vector_11:

00001342 <__vector_11>:
uint8_t timer;


//===================// Timer function //===================//
ISR(TIMER1_COMPA_vect)
{
    1342:	1f 92       	push	r1
    1344:	0f 92       	push	r0
    1346:	0f b6       	in	r0, 0x3f	; 63
    1348:	0f 92       	push	r0
    134a:	11 24       	eor	r1, r1
    134c:	2f 93       	push	r18
    134e:	3f 93       	push	r19
    1350:	4f 93       	push	r20
    1352:	5f 93       	push	r21
    1354:	6f 93       	push	r22
    1356:	7f 93       	push	r23
    1358:	8f 93       	push	r24
    135a:	9f 93       	push	r25
    135c:	af 93       	push	r26
    135e:	bf 93       	push	r27
    1360:	ef 93       	push	r30
    1362:	ff 93       	push	r31
	readKeyboard();
    1364:	0e 94 a7 00 	call	0x14e	; 0x14e <readKeyboard>
	
	timer++;
    1368:	80 91 00 01 	lds	r24, 0x0100	; 0x800100 <__DATA_REGION_ORIGIN__>
    136c:	8f 5f       	subi	r24, 0xFF	; 255
    136e:	80 93 00 01 	sts	0x0100, r24	; 0x800100 <__DATA_REGION_ORIGIN__>
	
	TCNT1 = T1_init;                      //resets TIMER1	
    1372:	10 92 85 00 	sts	0x0085, r1	; 0x800085 <__TEXT_REGION_LENGTH__+0x7f8085>
    1376:	10 92 84 00 	sts	0x0084, r1	; 0x800084 <__TEXT_REGION_LENGTH__+0x7f8084>
}
    137a:	ff 91       	pop	r31
    137c:	ef 91       	pop	r30
    137e:	bf 91       	pop	r27
    1380:	af 91       	pop	r26
    1382:	9f 91       	pop	r25
    1384:	8f 91       	pop	r24
    1386:	7f 91       	pop	r23
    1388:	6f 91       	pop	r22
    138a:	5f 91       	pop	r21
    138c:	4f 91       	pop	r20
    138e:	3f 91       	pop	r19
    1390:	2f 91       	pop	r18
    1392:	0f 90       	pop	r0
    1394:	0f be       	out	0x3f, r0	; 63
    1396:	0f 90       	pop	r0
    1398:	1f 90       	pop	r1
    139a:	18 95       	reti

Disassembly of section .text.menu:

00000db0 <menu>:
	TIMSK1 = (1 << OCIE1A);
	
}

void menu()
{
 db0:	cf 93       	push	r28
 db2:	df 93       	push	r29
 db4:	cd b7       	in	r28, 0x3d	; 61
 db6:	de b7       	in	r29, 0x3e	; 62
 db8:	a6 97       	sbiw	r28, 0x26	; 38
 dba:	0f b6       	in	r0, 0x3f	; 63
 dbc:	f8 94       	cli
 dbe:	de bf       	out	0x3e, r29	; 62
 dc0:	0f be       	out	0x3f, r0	; 63
 dc2:	cd bf       	out	0x3d, r28	; 61
	srand(timer);
 dc4:	80 91 00 01 	lds	r24, 0x0100	; 0x800100 <__DATA_REGION_ORIGIN__>
 dc8:	90 e0       	ldi	r25, 0x00	; 0
 dca:	0e 94 90 08 	call	0x1120	; 0x1120 <srand>
	
	char msg1[] = "Senha B";
 dce:	20 ee       	ldi	r18, 0xE0	; 224
 dd0:	30 e0       	ldi	r19, 0x00	; 0
 dd2:	40 e0       	ldi	r20, 0x00	; 0
 dd4:	88 e0       	ldi	r24, 0x08	; 8
 dd6:	f9 01       	movw	r30, r18
 dd8:	de 01       	movw	r26, r28
 dda:	11 96       	adiw	r26, 0x01	; 1
 ddc:	74 2f       	mov	r23, r20
 dde:	0e 94 2e 0b 	call	0x165c	; 0x165c <__movmemx_qi>
	char msg2[] = "Senha C";
 de2:	28 ee       	ldi	r18, 0xE8	; 232
 de4:	30 e0       	ldi	r19, 0x00	; 0
 de6:	40 e0       	ldi	r20, 0x00	; 0
 de8:	88 e0       	ldi	r24, 0x08	; 8
 dea:	f9 01       	movw	r30, r18
 dec:	de 01       	movw	r26, r28
 dee:	19 96       	adiw	r26, 0x09	; 9
 df0:	74 2f       	mov	r23, r20
 df2:	0e 94 2e 0b 	call	0x165c	; 0x165c <__movmemx_qi>
	char msg3[] = "t7.pw=1";
 df6:	20 ef       	ldi	r18, 0xF0	; 240
 df8:	30 e0       	ldi	r19, 0x00	; 0
 dfa:	40 e0       	ldi	r20, 0x00	; 0
 dfc:	88 e0       	ldi	r24, 0x08	; 8
 dfe:	f9 01       	movw	r30, r18
 e00:	de 01       	movw	r26, r28
 e02:	51 96       	adiw	r26, 0x11	; 17
 e04:	74 2f       	mov	r23, r20
 e06:	0e 94 2e 0b 	call	0x165c	; 0x165c <__movmemx_qi>
	char msg4[] = "t2.pw=1";
 e0a:	28 ef       	ldi	r18, 0xF8	; 248
 e0c:	30 e0       	ldi	r19, 0x00	; 0
 e0e:	40 e0       	ldi	r20, 0x00	; 0
 e10:	88 e0       	ldi	r24, 0x08	; 8
 e12:	f9 01       	movw	r30, r18
 e14:	de 01       	movw	r26, r28
 e16:	59 96       	adiw	r26, 0x19	; 25
 e18:	74 2f       	mov	r23, r20
 e1a:	0e 94 2e 0b 	call	0x165c	; 0x165c <__movmemx_qi>
	char endLine1[] = "";
 e1e:	8f ef       	ldi	r24, 0xFF	; 255
 e20:	9f ef       	ldi	r25, 0xFF	; 255
 e22:	9a a3       	std	Y+34, r25	; 0x22
 e24:	89 a3       	std	Y+33, r24	; 0x21
 e26:	8f ef       	ldi	r24, 0xFF	; 255
 e28:	90 e0       	ldi	r25, 0x00	; 0
 e2a:	9c a3       	std	Y+36, r25	; 0x24
 e2c:	8b a3       	std	Y+35, r24	; 0x23
	char clear[] = " ";
 e2e:	80 e2       	ldi	r24, 0x20	; 32
 e30:	90 e0       	ldi	r25, 0x00	; 0
 e32:	9e a3       	std	Y+38, r25	; 0x26
 e34:	8d a3       	std	Y+37, r24	; 0x25
	
	Nextion_sendString(idCompB,clear);
 e36:	be 01       	movw	r22, r28
 e38:	6b 5d       	subi	r22, 0xDB	; 219
 e3a:	7f 4f       	sbci	r23, 0xFF	; 255
 e3c:	8d e0       	ldi	r24, 0x0D	; 13
 e3e:	91 e0       	ldi	r25, 0x01	; 1
 e40:	0e 94 82 07 	call	0xf04	; 0xf04 <Nextion_sendString>
	Nextion_sendString(idCompC,clear);
 e44:	be 01       	movw	r22, r28
 e46:	6b 5d       	subi	r22, 0xDB	; 219
 e48:	7f 4f       	sbci	r23, 0xFF	; 255
 e4a:	81 e0       	ldi	r24, 0x01	; 1
 e4c:	91 e0       	ldi	r25, 0x01	; 1
 e4e:	0e 94 82 07 	call	0xf04	; 0xf04 <Nextion_sendString>
	
	Nextion_sendString(idTituloB, msg1);
 e52:	be 01       	movw	r22, r28
 e54:	6f 5f       	subi	r22, 0xFF	; 255
 e56:	7f 4f       	sbci	r23, 0xFF	; 255
 e58:	8f e1       	ldi	r24, 0x1F	; 31
 e5a:	91 e0       	ldi	r25, 0x01	; 1
 e5c:	0e 94 82 07 	call	0xf04	; 0xf04 <Nextion_sendString>
	Nextion_sendString(idTituloC, msg2);
 e60:	be 01       	movw	r22, r28
 e62:	67 5f       	subi	r22, 0xF7	; 247
 e64:	7f 4f       	sbci	r23, 0xFF	; 255
 e66:	8c e1       	ldi	r24, 0x1C	; 28
 e68:	91 e0       	ldi	r25, 0x01	; 1
 e6a:	0e 94 82 07 	call	0xf04	; 0xf04 <Nextion_sendString>
	
	Nextion_sendString(idRespostaB,clear);
 e6e:	be 01       	movw	r22, r28
 e70:	6b 5d       	subi	r22, 0xDB	; 219
 e72:	7f 4f       	sbci	r23, 0xFF	; 255
 e74:	86 e1       	ldi	r24, 0x16	; 22
 e76:	91 e0       	ldi	r25, 0x01	; 1
 e78:	0e 94 82 07 	call	0xf04	; 0xf04 <Nextion_sendString>
	Nextion_sendString(idRespostaB,clear);
 e7c:	be 01       	movw	r22, r28
 e7e:	6b 5d       	subi	r22, 0xDB	; 219
 e80:	7f 4f       	sbci	r23, 0xFF	; 255
 e82:	86 e1       	ldi	r24, 0x16	; 22
 e84:	91 e0       	ldi	r25, 0x01	; 1
 e86:	0e 94 82 07 	call	0xf04	; 0xf04 <Nextion_sendString>
	
	USART_SendString((unsigned char *)msg3);
 e8a:	ce 01       	movw	r24, r28
 e8c:	41 96       	adiw	r24, 0x11	; 17
 e8e:	0e 94 b6 0a 	call	0x156c	; 0x156c <USART_SendString>
	USART_SendString((unsigned char *)endLine1);
 e92:	ce 01       	movw	r24, r28
 e94:	81 96       	adiw	r24, 0x21	; 33
 e96:	0e 94 b6 0a 	call	0x156c	; 0x156c <USART_SendString>
	
	USART_SendString((unsigned char *)msg4);
 e9a:	ce 01       	movw	r24, r28
 e9c:	49 96       	adiw	r24, 0x19	; 25
 e9e:	0e 94 b6 0a 	call	0x156c	; 0x156c <USART_SendString>
	USART_SendString((unsigned char *)endLine1);
 ea2:	ce 01       	movw	r24, r28
 ea4:	81 96       	adiw	r24, 0x21	; 33
 ea6:	0e 94 b6 0a 	call	0x156c	; 0x156c <USART_SendString>
	
	gameMode  = 0;
 eaa:	10 92 37 01 	sts	0x0137, r1	; 0x800137 <gameMode>
	numero    = 0;
 eae:	10 92 3b 01 	sts	0x013B, r1	; 0x80013b <numero>
	algarismo = 0;
 eb2:	10 92 3c 01 	sts	0x013C, r1	; 0x80013c <algarismo>
	
	senhaB = (char)rand()%99;
 eb6:	0e 94 8b 08 	call	0x1116	; 0x1116 <rand>
 eba:	99 27       	eor	r25, r25
 ebc:	63 e6       	ldi	r22, 0x63	; 99
 ebe:	70 e0       	ldi	r23, 0x00	; 0
 ec0:	0e 94 cc 0a 	call	0x1598	; 0x1598 <__divmodhi4>
	senhaB += senhaB<10? 10:0;
 ec4:	8a 30       	cpi	r24, 0x0A	; 10
 ec6:	10 f4       	brcc	.+4      	; 0xecc <menu+0x11c>
 ec8:	9a e0       	ldi	r25, 0x0A	; 10
 eca:	01 c0       	rjmp	.+2      	; 0xece <menu+0x11e>
 ecc:	90 e0       	ldi	r25, 0x00	; 0
 ece:	89 0f       	add	r24, r25
 ed0:	80 93 39 01 	sts	0x0139, r24	; 0x800139 <senhaB>
	senhaC = (char)rand()%99;
 ed4:	0e 94 8b 08 	call	0x1116	; 0x1116 <rand>
 ed8:	99 27       	eor	r25, r25
 eda:	63 e6       	ldi	r22, 0x63	; 99
 edc:	70 e0       	ldi	r23, 0x00	; 0
 ede:	0e 94 cc 0a 	call	0x1598	; 0x1598 <__divmodhi4>
	senhaC += senhaC<10? 10:0;	
 ee2:	8a 30       	cpi	r24, 0x0A	; 10
 ee4:	10 f4       	brcc	.+4      	; 0xeea <menu+0x13a>
 ee6:	9a e0       	ldi	r25, 0x0A	; 10
 ee8:	01 c0       	rjmp	.+2      	; 0xeec <menu+0x13c>
 eea:	90 e0       	ldi	r25, 0x00	; 0
 eec:	89 0f       	add	r24, r25
 eee:	80 93 38 01 	sts	0x0138, r24	; 0x800138 <senhaC>
}
 ef2:	a6 96       	adiw	r28, 0x26	; 38
 ef4:	0f b6       	in	r0, 0x3f	; 63
 ef6:	f8 94       	cli
 ef8:	de bf       	out	0x3e, r29	; 62
 efa:	0f be       	out	0x3f, r0	; 63
 efc:	cd bf       	out	0x3d, r28	; 61
 efe:	df 91       	pop	r29
 f00:	cf 91       	pop	r28
 f02:	08 95       	ret

Disassembly of section .text.startGame:

00000c22 <startGame>:
void startGame()
{
 c22:	cf 93       	push	r28
 c24:	df 93       	push	r29
 c26:	cd b7       	in	r28, 0x3d	; 61
 c28:	de b7       	in	r29, 0x3e	; 62
 c2a:	c6 54       	subi	r28, 0x46	; 70
 c2c:	d1 09       	sbc	r29, r1
 c2e:	0f b6       	in	r0, 0x3f	; 63
 c30:	f8 94       	cli
 c32:	de bf       	out	0x3e, r29	; 62
 c34:	0f be       	out	0x3f, r0	; 63
 c36:	cd bf       	out	0x3d, r28	; 61
	char msg1[]  = "Pressione tecla B";
 c38:	20 e0       	ldi	r18, 0x00	; 0
 c3a:	31 e0       	ldi	r19, 0x01	; 1
 c3c:	40 e0       	ldi	r20, 0x00	; 0
 c3e:	82 e1       	ldi	r24, 0x12	; 18
 c40:	f9 01       	movw	r30, r18
 c42:	de 01       	movw	r26, r28
 c44:	11 96       	adiw	r26, 0x01	; 1
 c46:	74 2f       	mov	r23, r20
 c48:	0e 94 2e 0b 	call	0x165c	; 0x165c <__movmemx_qi>
	char msg2[]  = "Pressione tecla C";
 c4c:	22 e1       	ldi	r18, 0x12	; 18
 c4e:	31 e0       	ldi	r19, 0x01	; 1
 c50:	40 e0       	ldi	r20, 0x00	; 0
 c52:	82 e1       	ldi	r24, 0x12	; 18
 c54:	f9 01       	movw	r30, r18
 c56:	de 01       	movw	r26, r28
 c58:	53 96       	adiw	r26, 0x13	; 19
 c5a:	74 2f       	mov	r23, r20
 c5c:	0e 94 2e 0b 	call	0x165c	; 0x165c <__movmemx_qi>
	char msg3[]  = "Player B pronto";
 c60:	24 e2       	ldi	r18, 0x24	; 36
 c62:	31 e0       	ldi	r19, 0x01	; 1
 c64:	40 e0       	ldi	r20, 0x00	; 0
 c66:	80 e1       	ldi	r24, 0x10	; 16
 c68:	f9 01       	movw	r30, r18
 c6a:	de 01       	movw	r26, r28
 c6c:	95 96       	adiw	r26, 0x25	; 37
 c6e:	74 2f       	mov	r23, r20
 c70:	0e 94 2e 0b 	call	0x165c	; 0x165c <__movmemx_qi>
	char msg4[]  = "Player C pronto";
 c74:	24 e3       	ldi	r18, 0x34	; 52
 c76:	31 e0       	ldi	r19, 0x01	; 1
 c78:	40 e0       	ldi	r20, 0x00	; 0
 c7a:	80 e1       	ldi	r24, 0x10	; 16
 c7c:	f9 01       	movw	r30, r18
 c7e:	de 01       	movw	r26, r28
 c80:	d5 96       	adiw	r26, 0x35	; 53
 c82:	74 2f       	mov	r23, r20
 c84:	0e 94 2e 0b 	call	0x165c	; 0x165c <__movmemx_qi>
	
	char clear[] = " ";
 c88:	80 e2       	ldi	r24, 0x20	; 32
 c8a:	90 e0       	ldi	r25, 0x00	; 0
 c8c:	27 96       	adiw	r28, 0x07	; 7
 c8e:	9f af       	std	Y+63, r25	; 0x3f
 c90:	8e af       	std	Y+62, r24	; 0x3e
 c92:	27 97       	sbiw	r28, 0x07	; 7
	
	static uint8_t pB_ready = 0,
				   pC_ready = 0;

	if(algarismo==14 && !pB_ready)
 c94:	80 91 3c 01 	lds	r24, 0x013C	; 0x80013c <algarismo>
 c98:	8e 30       	cpi	r24, 0x0E	; 14
 c9a:	71 f4       	brne	.+28     	; 0xcb8 <startGame+0x96>
 c9c:	80 91 24 01 	lds	r24, 0x0124	; 0x800124 <pB_ready.2460>
 ca0:	81 11       	cpse	r24, r1
 ca2:	0a c0       	rjmp	.+20     	; 0xcb8 <startGame+0x96>
	{
		pB_ready = 1;
 ca4:	81 e0       	ldi	r24, 0x01	; 1
 ca6:	80 93 24 01 	sts	0x0124, r24	; 0x800124 <pB_ready.2460>
		Nextion_sendString(idRespostaB,msg3);
 caa:	be 01       	movw	r22, r28
 cac:	6b 5d       	subi	r22, 0xDB	; 219
 cae:	7f 4f       	sbci	r23, 0xFF	; 255
 cb0:	86 e1       	ldi	r24, 0x16	; 22
 cb2:	91 e0       	ldi	r25, 0x01	; 1
 cb4:	0e 94 82 07 	call	0xf04	; 0xf04 <Nextion_sendString>
	}
	
	if(algarismo==15 && !pC_ready)
 cb8:	80 91 3c 01 	lds	r24, 0x013C	; 0x80013c <algarismo>
 cbc:	8f 30       	cpi	r24, 0x0F	; 15
 cbe:	71 f4       	brne	.+28     	; 0xcdc <startGame+0xba>
 cc0:	80 91 23 01 	lds	r24, 0x0123	; 0x800123 <pC_ready.2461>
 cc4:	81 11       	cpse	r24, r1
 cc6:	0a c0       	rjmp	.+20     	; 0xcdc <startGame+0xba>
	{
		pC_ready = 1;
 cc8:	81 e0       	ldi	r24, 0x01	; 1
 cca:	80 93 23 01 	sts	0x0123, r24	; 0x800123 <pC_ready.2461>
		Nextion_sendString(idRespostaC,msg4);
 cce:	be 01       	movw	r22, r28
 cd0:	6b 5c       	subi	r22, 0xCB	; 203
 cd2:	7f 4f       	sbci	r23, 0xFF	; 255
 cd4:	80 e1       	ldi	r24, 0x10	; 16
 cd6:	91 e0       	ldi	r25, 0x01	; 1
 cd8:	0e 94 82 07 	call	0xf04	; 0xf04 <Nextion_sendString>
	}
	
	if(pB_ready && pC_ready)
 cdc:	80 91 24 01 	lds	r24, 0x0124	; 0x800124 <pB_ready.2460>
 ce0:	88 23       	and	r24, r24
 ce2:	31 f1       	breq	.+76     	; 0xd30 <startGame+0x10e>
 ce4:	80 91 23 01 	lds	r24, 0x0123	; 0x800123 <pC_ready.2461>
 ce8:	88 23       	and	r24, r24
 cea:	11 f1       	breq	.+68     	; 0xd30 <startGame+0x10e>
	{
		srand(timer);
 cec:	80 91 00 01 	lds	r24, 0x0100	; 0x800100 <__DATA_REGION_ORIGIN__>
 cf0:	90 e0       	ldi	r25, 0x00	; 0
 cf2:	0e 94 90 08 	call	0x1120	; 0x1120 <srand>
		
		Nextion_sendInt(idSenhaB,senhaB);
 cf6:	60 91 39 01 	lds	r22, 0x0139	; 0x800139 <senhaB>
 cfa:	70 e0       	ldi	r23, 0x00	; 0
 cfc:	89 e1       	ldi	r24, 0x19	; 25
 cfe:	91 e0       	ldi	r25, 0x01	; 1
 d00:	0e 94 6d 09 	call	0x12da	; 0x12da <Nextion_sendInt>
		Nextion_sendInt(idSenhaC,senhaC);
 d04:	60 91 38 01 	lds	r22, 0x0138	; 0x800138 <senhaC>
 d08:	70 e0       	ldi	r23, 0x00	; 0
 d0a:	83 e1       	ldi	r24, 0x13	; 19
 d0c:	91 e0       	ldi	r25, 0x01	; 1
 d0e:	0e 94 6d 09 	call	0x12da	; 0x12da <Nextion_sendInt>
		Nextion_sendInt(idRespostaB,0);
 d12:	60 e0       	ldi	r22, 0x00	; 0
 d14:	70 e0       	ldi	r23, 0x00	; 0
 d16:	86 e1       	ldi	r24, 0x16	; 22
 d18:	91 e0       	ldi	r25, 0x01	; 1
 d1a:	0e 94 6d 09 	call	0x12da	; 0x12da <Nextion_sendInt>
		Nextion_sendInt(idRespostaC,0);
 d1e:	60 e0       	ldi	r22, 0x00	; 0
 d20:	70 e0       	ldi	r23, 0x00	; 0
 d22:	80 e1       	ldi	r24, 0x10	; 16
 d24:	91 e0       	ldi	r25, 0x01	; 1
 d26:	0e 94 6d 09 	call	0x12da	; 0x12da <Nextion_sendInt>
		
		gameMode = 0x01;
 d2a:	81 e0       	ldi	r24, 0x01	; 1
 d2c:	80 93 37 01 	sts	0x0137, r24	; 0x800137 <gameMode>
	}

	
	if(!pB_ready)
 d30:	80 91 24 01 	lds	r24, 0x0124	; 0x800124 <pB_ready.2460>
 d34:	81 11       	cpse	r24, r1
 d36:	17 c0       	rjmp	.+46     	; 0xd66 <startGame+0x144>
	{
		
		Nextion_sendString(idRespostaB,clear);
 d38:	be 01       	movw	r22, r28
 d3a:	6b 5b       	subi	r22, 0xBB	; 187
 d3c:	7f 4f       	sbci	r23, 0xFF	; 255
 d3e:	86 e1       	ldi	r24, 0x16	; 22
 d40:	91 e0       	ldi	r25, 0x01	; 1
 d42:	0e 94 82 07 	call	0xf04	; 0xf04 <Nextion_sendString>
 d46:	2f ef       	ldi	r18, 0xFF	; 255
 d48:	85 ea       	ldi	r24, 0xA5	; 165
 d4a:	9e e0       	ldi	r25, 0x0E	; 14
 d4c:	21 50       	subi	r18, 0x01	; 1
 d4e:	80 40       	sbci	r24, 0x00	; 0
 d50:	90 40       	sbci	r25, 0x00	; 0
 d52:	e1 f7       	brne	.-8      	; 0xd4c <startGame+0x12a>
 d54:	00 c0       	rjmp	.+0      	; 0xd56 <startGame+0x134>
 d56:	00 00       	nop
		_delay_ms(300);
		Nextion_sendString(idRespostaB,msg1);
 d58:	be 01       	movw	r22, r28
 d5a:	6f 5f       	subi	r22, 0xFF	; 255
 d5c:	7f 4f       	sbci	r23, 0xFF	; 255
 d5e:	86 e1       	ldi	r24, 0x16	; 22
 d60:	91 e0       	ldi	r25, 0x01	; 1
 d62:	0e 94 82 07 	call	0xf04	; 0xf04 <Nextion_sendString>
	}
	
	if(!pC_ready)
 d66:	80 91 23 01 	lds	r24, 0x0123	; 0x800123 <pC_ready.2461>
 d6a:	81 11       	cpse	r24, r1
 d6c:	17 c0       	rjmp	.+46     	; 0xd9c <startGame+0x17a>
	{
		Nextion_sendString(idRespostaC,msg2);
 d6e:	be 01       	movw	r22, r28
 d70:	6d 5e       	subi	r22, 0xED	; 237
 d72:	7f 4f       	sbci	r23, 0xFF	; 255
 d74:	80 e1       	ldi	r24, 0x10	; 16
 d76:	91 e0       	ldi	r25, 0x01	; 1
 d78:	0e 94 82 07 	call	0xf04	; 0xf04 <Nextion_sendString>
 d7c:	2f ef       	ldi	r18, 0xFF	; 255
 d7e:	85 ea       	ldi	r24, 0xA5	; 165
 d80:	9e e0       	ldi	r25, 0x0E	; 14
 d82:	21 50       	subi	r18, 0x01	; 1
 d84:	80 40       	sbci	r24, 0x00	; 0
 d86:	90 40       	sbci	r25, 0x00	; 0
 d88:	e1 f7       	brne	.-8      	; 0xd82 <startGame+0x160>
 d8a:	00 c0       	rjmp	.+0      	; 0xd8c <startGame+0x16a>
 d8c:	00 00       	nop
		_delay_ms(300);
		Nextion_sendString(idRespostaC,clear);
 d8e:	be 01       	movw	r22, r28
 d90:	6b 5b       	subi	r22, 0xBB	; 187
 d92:	7f 4f       	sbci	r23, 0xFF	; 255
 d94:	80 e1       	ldi	r24, 0x10	; 16
 d96:	91 e0       	ldi	r25, 0x01	; 1
 d98:	0e 94 82 07 	call	0xf04	; 0xf04 <Nextion_sendString>
		
	}
}
 d9c:	ca 5b       	subi	r28, 0xBA	; 186
 d9e:	df 4f       	sbci	r29, 0xFF	; 255
 da0:	0f b6       	in	r0, 0x3f	; 63
 da2:	f8 94       	cli
 da4:	de bf       	out	0x3e, r29	; 62
 da6:	0f be       	out	0x3f, r0	; 63
 da8:	cd bf       	out	0x3d, r28	; 61
 daa:	df 91       	pop	r29
 dac:	cf 91       	pop	r28
 dae:	08 95       	ret

Disassembly of section .text.clearNumbers:

0000139c <clearNumbers>:
	
	_delay_ms(100);
}

void clearNumbers(char player)
{
    139c:	cf 93       	push	r28
    139e:	df 93       	push	r29
    13a0:	00 d0       	rcall	.+0      	; 0x13a2 <clearNumbers+0x6>
    13a2:	cd b7       	in	r28, 0x3d	; 61
    13a4:	de b7       	in	r29, 0x3e	; 62
	char nada[] = "0";
    13a6:	20 e3       	ldi	r18, 0x30	; 48
    13a8:	30 e0       	ldi	r19, 0x00	; 0
    13aa:	3a 83       	std	Y+2, r19	; 0x02
    13ac:	29 83       	std	Y+1, r18	; 0x01
	numero    = 0;
    13ae:	10 92 3b 01 	sts	0x013B, r1	; 0x80013b <numero>
	algarismo = 0;
    13b2:	10 92 3c 01 	sts	0x013C, r1	; 0x80013c <algarismo>
	
	if(!player)
    13b6:	81 11       	cpse	r24, r1
    13b8:	08 c0       	rjmp	.+16     	; 0x13ca <clearNumbers+0x2e>
	{
		Nextion_sendString(idRespostaB,nada);
    13ba:	be 01       	movw	r22, r28
    13bc:	6f 5f       	subi	r22, 0xFF	; 255
    13be:	7f 4f       	sbci	r23, 0xFF	; 255
    13c0:	86 e1       	ldi	r24, 0x16	; 22
    13c2:	91 e0       	ldi	r25, 0x01	; 1
    13c4:	0e 94 82 07 	call	0xf04	; 0xf04 <Nextion_sendString>
    13c8:	07 c0       	rjmp	.+14     	; 0x13d8 <clearNumbers+0x3c>
	}else Nextion_sendString(idRespostaC,nada);
    13ca:	be 01       	movw	r22, r28
    13cc:	6f 5f       	subi	r22, 0xFF	; 255
    13ce:	7f 4f       	sbci	r23, 0xFF	; 255
    13d0:	80 e1       	ldi	r24, 0x10	; 16
    13d2:	91 e0       	ldi	r25, 0x01	; 1
    13d4:	0e 94 82 07 	call	0xf04	; 0xf04 <Nextion_sendString>
	
}
    13d8:	0f 90       	pop	r0
    13da:	0f 90       	pop	r0
    13dc:	df 91       	pop	r29
    13de:	cf 91       	pop	r28
    13e0:	08 95       	ret

Disassembly of section .text.gameRun:

00000a24 <gameRun>:
		
	}
}

void gameRun()
{
 a24:	cf 93       	push	r28
 a26:	df 93       	push	r29
 a28:	00 d0       	rcall	.+0      	; 0xa2a <gameRun+0x6>
 a2a:	00 d0       	rcall	.+0      	; 0xa2c <gameRun+0x8>
 a2c:	00 d0       	rcall	.+0      	; 0xa2e <gameRun+0xa>
 a2e:	cd b7       	in	r28, 0x3d	; 61
 a30:	de b7       	in	r29, 0x3e	; 62
	static uint8_t ctrl   = 0;
				   
	char menor[] = "<",
 a32:	8c e3       	ldi	r24, 0x3C	; 60
 a34:	90 e0       	ldi	r25, 0x00	; 0
 a36:	9a 83       	std	Y+2, r25	; 0x02
 a38:	89 83       	std	Y+1, r24	; 0x01
		 maior[] = ">",
 a3a:	8e e3       	ldi	r24, 0x3E	; 62
 a3c:	90 e0       	ldi	r25, 0x00	; 0
 a3e:	9c 83       	std	Y+4, r25	; 0x04
 a40:	8b 83       	std	Y+3, r24	; 0x03
		 igual[] = "=";
 a42:	8d e3       	ldi	r24, 0x3D	; 61
 a44:	90 e0       	ldi	r25, 0x00	; 0
 a46:	9e 83       	std	Y+6, r25	; 0x06
 a48:	8d 83       	std	Y+5, r24	; 0x05
				   
	
	if(!ctrl)
 a4a:	80 91 22 01 	lds	r24, 0x0122	; 0x800122 <ctrl.2464>
 a4e:	81 11       	cpse	r24, r1
 a50:	07 c0       	rjmp	.+14     	; 0xa60 <gameRun+0x3c>
	{
		clearNumbers(player);
 a52:	80 91 36 01 	lds	r24, 0x0136	; 0x800136 <player>
 a56:	0e 94 ce 09 	call	0x139c	; 0x139c <clearNumbers>
		ctrl = 1;	
 a5a:	81 e0       	ldi	r24, 0x01	; 1
 a5c:	80 93 22 01 	sts	0x0122, r24	; 0x800122 <ctrl.2464>
	}
	
	
	
	if(!player)//B
 a60:	80 91 36 01 	lds	r24, 0x0136	; 0x800136 <player>
 a64:	81 11       	cpse	r24, r1
 a66:	5f c0       	rjmp	.+190    	; 0xb26 <gameRun+0x102>
	{
		if(algarismo == 16)
 a68:	80 91 3c 01 	lds	r24, 0x013C	; 0x80013c <algarismo>
 a6c:	80 31       	cpi	r24, 0x10	; 16
 a6e:	09 f0       	breq	.+2      	; 0xa72 <gameRun+0x4e>
 a70:	b8 c0       	rjmp	.+368    	; 0xbe2 <gameRun+0x1be>
		{	
			TIMSK1 = 0; 
 a72:	10 92 6f 00 	sts	0x006F, r1	; 0x80006f <__TEXT_REGION_LENGTH__+0x7f806f>
 a76:	2f ef       	ldi	r18, 0xFF	; 255
 a78:	30 e7       	ldi	r19, 0x70	; 112
 a7a:	82 e0       	ldi	r24, 0x02	; 2
 a7c:	21 50       	subi	r18, 0x01	; 1
 a7e:	30 40       	sbci	r19, 0x00	; 0
 a80:	80 40       	sbci	r24, 0x00	; 0
 a82:	e1 f7       	brne	.-8      	; 0xa7c <gameRun+0x58>
 a84:	00 c0       	rjmp	.+0      	; 0xa86 <gameRun+0x62>
 a86:	00 00       	nop
			_delay_ms(50);
			//clearNumbers(player);
			
			if(numero<senhaB)       {Nextion_sendString(idCompB,menor); player = 1; clearNumbers(player);}
 a88:	90 91 3b 01 	lds	r25, 0x013B	; 0x80013b <numero>
 a8c:	80 91 39 01 	lds	r24, 0x0139	; 0x800139 <senhaB>
 a90:	98 17       	cp	r25, r24
 a92:	68 f4       	brcc	.+26     	; 0xaae <gameRun+0x8a>
 a94:	be 01       	movw	r22, r28
 a96:	6f 5f       	subi	r22, 0xFF	; 255
 a98:	7f 4f       	sbci	r23, 0xFF	; 255
 a9a:	8d e0       	ldi	r24, 0x0D	; 13
 a9c:	91 e0       	ldi	r25, 0x01	; 1
 a9e:	0e 94 82 07 	call	0xf04	; 0xf04 <Nextion_sendString>
 aa2:	81 e0       	ldi	r24, 0x01	; 1
 aa4:	80 93 36 01 	sts	0x0136, r24	; 0x800136 <player>
 aa8:	0e 94 ce 09 	call	0x139c	; 0x139c <clearNumbers>
 aac:	2d c0       	rjmp	.+90     	; 0xb08 <gameRun+0xe4>
			else if(numero>senhaB)  {Nextion_sendString(idCompB,maior); player = 1; clearNumbers(player);} 
 aae:	90 91 3b 01 	lds	r25, 0x013B	; 0x80013b <numero>
 ab2:	89 17       	cp	r24, r25
 ab4:	68 f4       	brcc	.+26     	; 0xad0 <gameRun+0xac>
 ab6:	be 01       	movw	r22, r28
 ab8:	6d 5f       	subi	r22, 0xFD	; 253
 aba:	7f 4f       	sbci	r23, 0xFF	; 255
 abc:	8d e0       	ldi	r24, 0x0D	; 13
 abe:	91 e0       	ldi	r25, 0x01	; 1
 ac0:	0e 94 82 07 	call	0xf04	; 0xf04 <Nextion_sendString>
 ac4:	81 e0       	ldi	r24, 0x01	; 1
 ac6:	80 93 36 01 	sts	0x0136, r24	; 0x800136 <player>
 aca:	0e 94 ce 09 	call	0x139c	; 0x139c <clearNumbers>
 ace:	1c c0       	rjmp	.+56     	; 0xb08 <gameRun+0xe4>
			else if(numero==senhaB) {Nextion_sendString(idCompB,igual); player = 1; clearNumbers(player); _delay_ms(10000); menu();} 
 ad0:	90 91 3b 01 	lds	r25, 0x013B	; 0x80013b <numero>
 ad4:	89 13       	cpse	r24, r25
 ad6:	18 c0       	rjmp	.+48     	; 0xb08 <gameRun+0xe4>
 ad8:	be 01       	movw	r22, r28
 ada:	6b 5f       	subi	r22, 0xFB	; 251
 adc:	7f 4f       	sbci	r23, 0xFF	; 255
 ade:	8d e0       	ldi	r24, 0x0D	; 13
 ae0:	91 e0       	ldi	r25, 0x01	; 1
 ae2:	0e 94 82 07 	call	0xf04	; 0xf04 <Nextion_sendString>
 ae6:	81 e0       	ldi	r24, 0x01	; 1
 ae8:	80 93 36 01 	sts	0x0136, r24	; 0x800136 <player>
 aec:	0e 94 ce 09 	call	0x139c	; 0x139c <clearNumbers>
 af0:	9a ea       	ldi	r25, 0xAA	; 170
 af2:	26 ee       	ldi	r18, 0xE6	; 230
 af4:	36 e9       	ldi	r19, 0x96	; 150
 af6:	81 e0       	ldi	r24, 0x01	; 1
 af8:	91 50       	subi	r25, 0x01	; 1
 afa:	20 40       	sbci	r18, 0x00	; 0
 afc:	30 40       	sbci	r19, 0x00	; 0
 afe:	80 40       	sbci	r24, 0x00	; 0
 b00:	d9 f7       	brne	.-10     	; 0xaf8 <gameRun+0xd4>
 b02:	00 00       	nop
 b04:	0e 94 d8 06 	call	0xdb0	; 0xdb0 <menu>
 b08:	9f ef       	ldi	r25, 0xFF	; 255
 b0a:	20 e7       	ldi	r18, 0x70	; 112
 b0c:	32 e0       	ldi	r19, 0x02	; 2
 b0e:	91 50       	subi	r25, 0x01	; 1
 b10:	20 40       	sbci	r18, 0x00	; 0
 b12:	30 40       	sbci	r19, 0x00	; 0
 b14:	e1 f7       	brne	.-8      	; 0xb0e <gameRun+0xea>
 b16:	00 c0       	rjmp	.+0      	; 0xb18 <gameRun+0xf4>
 b18:	00 00       	nop
			_delay_ms(50);
			digito = 0;
 b1a:	10 92 3a 01 	sts	0x013A, r1	; 0x80013a <digito>
			TIMSK1 = (1 << OCIE1A);
 b1e:	82 e0       	ldi	r24, 0x02	; 2
 b20:	80 93 6f 00 	sts	0x006F, r24	; 0x80006f <__TEXT_REGION_LENGTH__+0x7f806f>
 b24:	5e c0       	rjmp	.+188    	; 0xbe2 <gameRun+0x1be>
		}
		//Nextion_sendInt(idRespostaB,numero);
			
	}else{ //C
		
		if(algarismo == 16)
 b26:	80 91 3c 01 	lds	r24, 0x013C	; 0x80013c <algarismo>
 b2a:	80 31       	cpi	r24, 0x10	; 16
 b2c:	09 f0       	breq	.+2      	; 0xb30 <gameRun+0x10c>
 b2e:	59 c0       	rjmp	.+178    	; 0xbe2 <gameRun+0x1be>
		{
			TIMSK1 = 0;
 b30:	10 92 6f 00 	sts	0x006F, r1	; 0x80006f <__TEXT_REGION_LENGTH__+0x7f806f>
 b34:	8f ef       	ldi	r24, 0xFF	; 255
 b36:	90 e7       	ldi	r25, 0x70	; 112
 b38:	22 e0       	ldi	r18, 0x02	; 2
 b3a:	81 50       	subi	r24, 0x01	; 1
 b3c:	90 40       	sbci	r25, 0x00	; 0
 b3e:	20 40       	sbci	r18, 0x00	; 0
 b40:	e1 f7       	brne	.-8      	; 0xb3a <gameRun+0x116>
 b42:	00 c0       	rjmp	.+0      	; 0xb44 <gameRun+0x120>
 b44:	00 00       	nop
			_delay_ms(50);
			//clearNumbers(player);
			
			if(numero<senhaC)       {Nextion_sendString(idCompC,menor); player = 0; clearNumbers(player);}
 b46:	90 91 3b 01 	lds	r25, 0x013B	; 0x80013b <numero>
 b4a:	80 91 38 01 	lds	r24, 0x0138	; 0x800138 <senhaC>
 b4e:	98 17       	cp	r25, r24
 b50:	68 f4       	brcc	.+26     	; 0xb6c <gameRun+0x148>
 b52:	be 01       	movw	r22, r28
 b54:	6f 5f       	subi	r22, 0xFF	; 255
 b56:	7f 4f       	sbci	r23, 0xFF	; 255
 b58:	81 e0       	ldi	r24, 0x01	; 1
 b5a:	91 e0       	ldi	r25, 0x01	; 1
 b5c:	0e 94 82 07 	call	0xf04	; 0xf04 <Nextion_sendString>
 b60:	10 92 36 01 	sts	0x0136, r1	; 0x800136 <player>
 b64:	80 e0       	ldi	r24, 0x00	; 0
 b66:	0e 94 ce 09 	call	0x139c	; 0x139c <clearNumbers>
 b6a:	2d c0       	rjmp	.+90     	; 0xbc6 <gameRun+0x1a2>
			else if(numero>senhaC)  {Nextion_sendString(idCompC,maior); player = 0; clearNumbers(player);}
 b6c:	90 91 3b 01 	lds	r25, 0x013B	; 0x80013b <numero>
 b70:	89 17       	cp	r24, r25
 b72:	68 f4       	brcc	.+26     	; 0xb8e <gameRun+0x16a>
 b74:	be 01       	movw	r22, r28
 b76:	6d 5f       	subi	r22, 0xFD	; 253
 b78:	7f 4f       	sbci	r23, 0xFF	; 255
 b7a:	81 e0       	ldi	r24, 0x01	; 1
 b7c:	91 e0       	ldi	r25, 0x01	; 1
 b7e:	0e 94 82 07 	call	0xf04	; 0xf04 <Nextion_sendString>
 b82:	10 92 36 01 	sts	0x0136, r1	; 0x800136 <player>
 b86:	80 e0       	ldi	r24, 0x00	; 0
 b88:	0e 94 ce 09 	call	0x139c	; 0x139c <clearNumbers>
 b8c:	1c c0       	rjmp	.+56     	; 0xbc6 <gameRun+0x1a2>
			else if(numero==senhaC) {Nextion_sendString(idCompC,igual); player = 0; clearNumbers(player); _delay_ms(10000); menu();}
 b8e:	90 91 3b 01 	lds	r25, 0x013B	; 0x80013b <numero>
 b92:	89 13       	cpse	r24, r25
 b94:	18 c0       	rjmp	.+48     	; 0xbc6 <gameRun+0x1a2>
 b96:	be 01       	movw	r22, r28
 b98:	6b 5f       	subi	r22, 0xFB	; 251
 b9a:	7f 4f       	sbci	r23, 0xFF	; 255
 b9c:	81 e0       	ldi	r24, 0x01	; 1
 b9e:	91 e0       	ldi	r25, 0x01	; 1
 ba0:	0e 94 82 07 	call	0xf04	; 0xf04 <Nextion_sendString>
 ba4:	10 92 36 01 	sts	0x0136, r1	; 0x800136 <player>
 ba8:	80 e0       	ldi	r24, 0x00	; 0
 baa:	0e 94 ce 09 	call	0x139c	; 0x139c <clearNumbers>
 bae:	3a ea       	ldi	r19, 0xAA	; 170
 bb0:	86 ee       	ldi	r24, 0xE6	; 230
 bb2:	96 e9       	ldi	r25, 0x96	; 150
 bb4:	21 e0       	ldi	r18, 0x01	; 1
 bb6:	31 50       	subi	r19, 0x01	; 1
 bb8:	80 40       	sbci	r24, 0x00	; 0
 bba:	90 40       	sbci	r25, 0x00	; 0
 bbc:	20 40       	sbci	r18, 0x00	; 0
 bbe:	d9 f7       	brne	.-10     	; 0xbb6 <gameRun+0x192>
 bc0:	00 00       	nop
 bc2:	0e 94 d8 06 	call	0xdb0	; 0xdb0 <menu>
			digito = 0;
 bc6:	10 92 3a 01 	sts	0x013A, r1	; 0x80013a <digito>
 bca:	3f ef       	ldi	r19, 0xFF	; 255
 bcc:	80 e7       	ldi	r24, 0x70	; 112
 bce:	92 e0       	ldi	r25, 0x02	; 2
 bd0:	31 50       	subi	r19, 0x01	; 1
 bd2:	80 40       	sbci	r24, 0x00	; 0
 bd4:	90 40       	sbci	r25, 0x00	; 0
 bd6:	e1 f7       	brne	.-8      	; 0xbd0 <gameRun+0x1ac>
 bd8:	00 c0       	rjmp	.+0      	; 0xbda <gameRun+0x1b6>
 bda:	00 00       	nop
			_delay_ms(50);
			TIMSK1 = (1 << OCIE1A);
 bdc:	82 e0       	ldi	r24, 0x02	; 2
 bde:	80 93 6f 00 	sts	0x006F, r24	; 0x80006f <__TEXT_REGION_LENGTH__+0x7f806f>
		}
		//Nextion_sendInt(idRespostaC,numero);
	}	
	
	if(algarismo == 11)
 be2:	80 91 3c 01 	lds	r24, 0x013C	; 0x80013c <algarismo>
 be6:	8b 30       	cpi	r24, 0x0B	; 11
 be8:	21 f4       	brne	.+8      	; 0xbf2 <gameRun+0x1ce>
	{
		clearNumbers(player);
 bea:	80 91 36 01 	lds	r24, 0x0136	; 0x800136 <player>
 bee:	0e 94 ce 09 	call	0x139c	; 0x139c <clearNumbers>
	}
	
	if(algarismo == 12)
 bf2:	80 91 3c 01 	lds	r24, 0x013C	; 0x80013c <algarismo>
 bf6:	8c 30       	cpi	r24, 0x0C	; 12
 bf8:	11 f4       	brne	.+4      	; 0xbfe <gameRun+0x1da>
	{
		menu();
 bfa:	0e 94 d8 06 	call	0xdb0	; 0xdb0 <menu>
 bfe:	2f ef       	ldi	r18, 0xFF	; 255
 c00:	31 ee       	ldi	r19, 0xE1	; 225
 c02:	84 e0       	ldi	r24, 0x04	; 4
 c04:	21 50       	subi	r18, 0x01	; 1
 c06:	30 40       	sbci	r19, 0x00	; 0
 c08:	80 40       	sbci	r24, 0x00	; 0
 c0a:	e1 f7       	brne	.-8      	; 0xc04 <gameRun+0x1e0>
 c0c:	00 c0       	rjmp	.+0      	; 0xc0e <gameRun+0x1ea>
 c0e:	00 00       	nop
	}
	
	_delay_ms(100);
}
 c10:	26 96       	adiw	r28, 0x06	; 6
 c12:	0f b6       	in	r0, 0x3f	; 63
 c14:	f8 94       	cli
 c16:	de bf       	out	0x3e, r29	; 62
 c18:	0f be       	out	0x3f, r0	; 63
 c1a:	cd bf       	out	0x3d, r28	; 61
 c1c:	df 91       	pop	r29
 c1e:	cf 91       	pop	r28
 c20:	08 95       	ret

Disassembly of section .text.main:

00001132 <main>:
int main(void)
{		
		
		
 	    //========== GPIO =========//
 	    set_bit(DDRB,D13);  
    1132:	84 b1       	in	r24, 0x04	; 4
    1134:	80 62       	ori	r24, 0x20	; 32
    1136:	84 b9       	out	0x04, r24	; 4
		set_bit(DDRC,buzzer);
    1138:	87 b1       	in	r24, 0x07	; 7
    113a:	80 64       	ori	r24, 0x40	; 64
    113c:	87 b9       	out	0x07, r24	; 7
		 
		set_bit(DDRD,col_1);
    113e:	8a b1       	in	r24, 0x0a	; 10
    1140:	84 60       	ori	r24, 0x04	; 4
    1142:	8a b9       	out	0x0a, r24	; 10
		set_bit(DDRD,col_2);
    1144:	8a b1       	in	r24, 0x0a	; 10
    1146:	88 60       	ori	r24, 0x08	; 8
    1148:	8a b9       	out	0x0a, r24	; 10
		set_bit(DDRD,col_3);
    114a:	8a b1       	in	r24, 0x0a	; 10
    114c:	80 61       	ori	r24, 0x10	; 16
    114e:	8a b9       	out	0x0a, r24	; 10
		set_bit(DDRD,col_4);
    1150:	8a b1       	in	r24, 0x0a	; 10
    1152:	80 62       	ori	r24, 0x20	; 32
    1154:	8a b9       	out	0x0a, r24	; 10
		
		reset_bit(DDRD,row_A);
    1156:	8a b1       	in	r24, 0x0a	; 10
    1158:	8f 7b       	andi	r24, 0xBF	; 191
    115a:	8a b9       	out	0x0a, r24	; 10
		reset_bit(DDRD,row_B);
    115c:	8a b1       	in	r24, 0x0a	; 10
    115e:	8f 77       	andi	r24, 0x7F	; 127
    1160:	8a b9       	out	0x0a, r24	; 10
		reset_bit(DDRB,row_C);
    1162:	84 b1       	in	r24, 0x04	; 4
    1164:	8e 7f       	andi	r24, 0xFE	; 254
    1166:	84 b9       	out	0x04, r24	; 4
		reset_bit(DDRB,row_D);
    1168:	84 b1       	in	r24, 0x04	; 4
    116a:	8d 7f       	andi	r24, 0xFD	; 253
    116c:	84 b9       	out	0x04, r24	; 4
		
		PORTD = 0;
    116e:	1b b8       	out	0x0b, r1	; 11
		PORTB = 0;
    1170:	15 b8       	out	0x05, r1	; 5
		
		set_bit(PORTD,col_1);
    1172:	8b b1       	in	r24, 0x0b	; 11
    1174:	84 60       	ori	r24, 0x04	; 4
    1176:	8b b9       	out	0x0b, r24	; 11
 	    //========== TIMER1 =========//   
 	    TCCR1A = 0;             //unable PWM, compare mode
    1178:	10 92 80 00 	sts	0x0080, r1	; 0x800080 <__TEXT_REGION_LENGTH__+0x7f8080>
		  
 	    //Prescaler 1:256
 	    set_bit(TCCR1B,CS12);
    117c:	e1 e8       	ldi	r30, 0x81	; 129
    117e:	f0 e0       	ldi	r31, 0x00	; 0
    1180:	80 81       	ld	r24, Z
    1182:	84 60       	ori	r24, 0x04	; 4
    1184:	80 83       	st	Z, r24
 	    reset_bit(TCCR1B,CS11);
    1186:	80 81       	ld	r24, Z
    1188:	8d 7f       	andi	r24, 0xFD	; 253
    118a:	80 83       	st	Z, r24
	    reset_bit(TCCR1B,CS10);
    118c:	80 81       	ld	r24, Z
    118e:	8e 7f       	andi	r24, 0xFE	; 254
    1190:	80 83       	st	Z, r24
 
 	    //Start and compare value for timer1
 	    TCNT1 = T1_init;
    1192:	10 92 85 00 	sts	0x0085, r1	; 0x800085 <__TEXT_REGION_LENGTH__+0x7f8085>
    1196:	10 92 84 00 	sts	0x0084, r1	; 0x800084 <__TEXT_REGION_LENGTH__+0x7f8084>
 	    OCR1A = T1_comp;
    119a:	88 ee       	ldi	r24, 0xE8	; 232
    119c:	93 e0       	ldi	r25, 0x03	; 3
    119e:	90 93 89 00 	sts	0x0089, r25	; 0x800089 <__TEXT_REGION_LENGTH__+0x7f8089>
    11a2:	80 93 88 00 	sts	0x0088, r24	; 0x800088 <__TEXT_REGION_LENGTH__+0x7f8088>
 
 	    //Enable timer 1 interrupt by value compare
 	    TIMSK1 = (1 << OCIE1A);
    11a6:	82 e0       	ldi	r24, 0x02	; 2
    11a8:	80 93 6f 00 	sts	0x006F, r24	; 0x80006f <__TEXT_REGION_LENGTH__+0x7f806f>
 
 	    //Global interrupt enable
 	    sei();
    11ac:	78 94       	sei
 
 	    //========== ADC =========//
		//analogInit();
		
		//========== UART =========//	
		USART_Init(MYUBRR);
    11ae:	87 e6       	ldi	r24, 0x67	; 103
    11b0:	90 e0       	ldi	r25, 0x00	; 0
    11b2:	0e 94 3b 0b 	call	0x1676	; 0x1676 <USART_Init>
		
		menu();
    11b6:	0e 94 d8 06 	call	0xdb0	; 0xdb0 <menu>
		
		
	while(1)
	{
		if(gameMode==0x00)
    11ba:	80 91 37 01 	lds	r24, 0x0137	; 0x800137 <gameMode>
    11be:	81 11       	cpse	r24, r1
    11c0:	03 c0       	rjmp	.+6      	; 0x11c8 <main+0x96>
		{
			startGame();
    11c2:	0e 94 11 06 	call	0xc22	; 0xc22 <startGame>
    11c6:	f9 cf       	rjmp	.-14     	; 0x11ba <main+0x88>
		}else gameRun();
    11c8:	0e 94 12 05 	call	0xa24	; 0xa24 <gameRun>
    11cc:	f6 cf       	rjmp	.-20     	; 0x11ba <main+0x88>

Disassembly of section .text.Nextion_sendString:

00000f04 <Nextion_sendString>:
#include "uart_hal.h"

char endLine[] = "";

void Nextion_sendString(char *ID,char *STR)
{
 f04:	cf 92       	push	r12
 f06:	df 92       	push	r13
 f08:	ef 92       	push	r14
 f0a:	0f 93       	push	r16
 f0c:	1f 93       	push	r17
 f0e:	cf 93       	push	r28
 f10:	df 93       	push	r29
 f12:	cd b7       	in	r28, 0x3d	; 61
 f14:	de b7       	in	r29, 0x3e	; 62
 f16:	ea 97       	sbiw	r28, 0x3a	; 58
 f18:	0f b6       	in	r0, 0x3f	; 63
 f1a:	f8 94       	cli
 f1c:	de bf       	out	0x3e, r29	; 62
 f1e:	0f be       	out	0x3f, r0	; 63
 f20:	cd bf       	out	0x3d, r28	; 61
 f22:	ac 01       	movw	r20, r24
 f24:	8b 01       	movw	r16, r22
	char buf[50];
	char aspas[] = "\"";
 f26:	82 e2       	ldi	r24, 0x22	; 34
 f28:	90 e0       	ldi	r25, 0x00	; 0
 f2a:	9c ab       	std	Y+52, r25	; 0x34
 f2c:	8b ab       	std	Y+51, r24	; 0x33
	char text[] = ".txt=";
 f2e:	0f 2e       	mov	r0, r31
 f30:	f4 e4       	ldi	r31, 0x44	; 68
 f32:	cf 2e       	mov	r12, r31
 f34:	f1 e0       	ldi	r31, 0x01	; 1
 f36:	df 2e       	mov	r13, r31
 f38:	f0 e0       	ldi	r31, 0x00	; 0
 f3a:	ef 2e       	mov	r14, r31
 f3c:	f0 2d       	mov	r31, r0
 f3e:	86 e0       	ldi	r24, 0x06	; 6
 f40:	f6 01       	movw	r30, r12
 f42:	de 01       	movw	r26, r28
 f44:	d5 96       	adiw	r26, 0x35	; 53
 f46:	7e 2d       	mov	r23, r14
 f48:	0e 94 2e 0b 	call	0x165c	; 0x165c <__movmemx_qi>
	
	strcpy(buf,ID);
 f4c:	60 e8       	ldi	r22, 0x80	; 128
 f4e:	ce 01       	movw	r24, r28
 f50:	01 96       	adiw	r24, 0x01	; 1
 f52:	0e 94 03 0b 	call	0x1606	; 0x1606 <strcpy>
	strcat(buf,text);
 f56:	ae 01       	movw	r20, r28
 f58:	4b 5c       	subi	r20, 0xCB	; 203
 f5a:	5f 4f       	sbci	r21, 0xFF	; 255
 f5c:	60 e8       	ldi	r22, 0x80	; 128
 f5e:	ce 01       	movw	r24, r28
 f60:	01 96       	adiw	r24, 0x01	; 1
 f62:	0e 94 88 0a 	call	0x1510	; 0x1510 <strcat>
	strcat(buf,aspas);
 f66:	6e 01       	movw	r12, r28
 f68:	83 e3       	ldi	r24, 0x33	; 51
 f6a:	c8 0e       	add	r12, r24
 f6c:	d1 1c       	adc	r13, r1
 f6e:	80 e8       	ldi	r24, 0x80	; 128
 f70:	e8 2e       	mov	r14, r24
 f72:	6e 2d       	mov	r22, r14
 f74:	a6 01       	movw	r20, r12
 f76:	ce 01       	movw	r24, r28
 f78:	01 96       	adiw	r24, 0x01	; 1
 f7a:	0e 94 88 0a 	call	0x1510	; 0x1510 <strcat>
	strcat(buf,STR);
 f7e:	a8 01       	movw	r20, r16
 f80:	60 e8       	ldi	r22, 0x80	; 128
 f82:	ce 01       	movw	r24, r28
 f84:	01 96       	adiw	r24, 0x01	; 1
 f86:	0e 94 88 0a 	call	0x1510	; 0x1510 <strcat>
	strcat(buf,aspas);
 f8a:	6e 2d       	mov	r22, r14
 f8c:	a6 01       	movw	r20, r12
 f8e:	ce 01       	movw	r24, r28
 f90:	01 96       	adiw	r24, 0x01	; 1
 f92:	0e 94 88 0a 	call	0x1510	; 0x1510 <strcat>
	
	USART_SendString((unsigned char *)buf);
 f96:	ce 01       	movw	r24, r28
 f98:	01 96       	adiw	r24, 0x01	; 1
 f9a:	0e 94 b6 0a 	call	0x156c	; 0x156c <USART_SendString>
	USART_SendString((unsigned char *)endLine);
 f9e:	85 e0       	ldi	r24, 0x05	; 5
 fa0:	91 e0       	ldi	r25, 0x01	; 1
 fa2:	0e 94 b6 0a 	call	0x156c	; 0x156c <USART_SendString>
}
 fa6:	ea 96       	adiw	r28, 0x3a	; 58
 fa8:	0f b6       	in	r0, 0x3f	; 63
 faa:	f8 94       	cli
 fac:	de bf       	out	0x3e, r29	; 62
 fae:	0f be       	out	0x3f, r0	; 63
 fb0:	cd bf       	out	0x3d, r28	; 61
 fb2:	df 91       	pop	r29
 fb4:	cf 91       	pop	r28
 fb6:	1f 91       	pop	r17
 fb8:	0f 91       	pop	r16
 fba:	ef 90       	pop	r14
 fbc:	df 90       	pop	r13
 fbe:	cf 90       	pop	r12
 fc0:	08 95       	ret

Disassembly of section .text.Nextion_sendInt:

000012da <Nextion_sendInt>:

void Nextion_sendInt(char *ID,int value)
{
    12da:	ef 92       	push	r14
    12dc:	ff 92       	push	r15
    12de:	0f 93       	push	r16
    12e0:	1f 93       	push	r17
    12e2:	cf 93       	push	r28
    12e4:	df 93       	push	r29
    12e6:	cd b7       	in	r28, 0x3d	; 61
    12e8:	de b7       	in	r29, 0x3e	; 62
    12ea:	e2 97       	sbiw	r28, 0x32	; 50
    12ec:	0f b6       	in	r0, 0x3f	; 63
    12ee:	f8 94       	cli
    12f0:	de bf       	out	0x3e, r29	; 62
    12f2:	0f be       	out	0x3f, r0	; 63
    12f4:	cd bf       	out	0x3d, r28	; 61
    12f6:	7c 01       	movw	r14, r24
	char buf[50];
	sprintf(buf,"%d",value);
    12f8:	7f 93       	push	r23
    12fa:	6f 93       	push	r22
    12fc:	8a e4       	ldi	r24, 0x4A	; 74
    12fe:	91 e0       	ldi	r25, 0x01	; 1
    1300:	a0 e0       	ldi	r26, 0x00	; 0
    1302:	af 93       	push	r26
    1304:	9f 93       	push	r25
    1306:	8f 93       	push	r24
    1308:	8e 01       	movw	r16, r28
    130a:	0f 5f       	subi	r16, 0xFF	; 255
    130c:	1f 4f       	sbci	r17, 0xFF	; 255
    130e:	1f 93       	push	r17
    1310:	0f 93       	push	r16
    1312:	0e 94 f1 09 	call	0x13e2	; 0x13e2 <sprintf>
	Nextion_sendString(ID,buf);
    1316:	b8 01       	movw	r22, r16
    1318:	c7 01       	movw	r24, r14
    131a:	0e 94 82 07 	call	0xf04	; 0xf04 <Nextion_sendString>
}
    131e:	0f b6       	in	r0, 0x3f	; 63
    1320:	f8 94       	cli
    1322:	de bf       	out	0x3e, r29	; 62
    1324:	0f be       	out	0x3f, r0	; 63
    1326:	cd bf       	out	0x3d, r28	; 61
    1328:	e2 96       	adiw	r28, 0x32	; 50
    132a:	0f b6       	in	r0, 0x3f	; 63
    132c:	f8 94       	cli
    132e:	de bf       	out	0x3e, r29	; 62
    1330:	0f be       	out	0x3f, r0	; 63
    1332:	cd bf       	out	0x3d, r28	; 61
    1334:	df 91       	pop	r29
    1336:	cf 91       	pop	r28
    1338:	1f 91       	pop	r17
    133a:	0f 91       	pop	r16
    133c:	ff 90       	pop	r15
    133e:	ef 90       	pop	r14
    1340:	08 95       	ret

Disassembly of section .text.__vector_20:

000015e8 <__vector_20>:
#include "uart_hal.h"

volatile uint8_t uart_tx_done = 1;  //1 as default	

ISR(USART_TX_vect)
{
    15e8:	1f 92       	push	r1
    15ea:	0f 92       	push	r0
    15ec:	0f b6       	in	r0, 0x3f	; 63
    15ee:	0f 92       	push	r0
    15f0:	11 24       	eor	r1, r1
    15f2:	8f 93       	push	r24
	uart_tx_done = 1;
    15f4:	81 e0       	ldi	r24, 0x01	; 1
    15f6:	80 93 3d 01 	sts	0x013D, r24	; 0x80013d <uart_tx_done>
}
    15fa:	8f 91       	pop	r24
    15fc:	0f 90       	pop	r0
    15fe:	0f be       	out	0x3f, r0	; 63
    1600:	0f 90       	pop	r0
    1602:	1f 90       	pop	r1
    1604:	18 95       	reti

Disassembly of section .text.USART_Init:

00001676 <USART_Init>:

void USART_Init(unsigned int ubrr)
{
	/*Set baud rate */
	UBRR0H = (unsigned char)(ubrr>>8);
    1676:	90 93 c5 00 	sts	0x00C5, r25	; 0x8000c5 <__TEXT_REGION_LENGTH__+0x7f80c5>
	UBRR0L = (unsigned char)ubrr;
    167a:	80 93 c4 00 	sts	0x00C4, r24	; 0x8000c4 <__TEXT_REGION_LENGTH__+0x7f80c4>
	/*Enable receiver and transmitter */
	UCSR0B = (0<<RXEN0)|(1<<TXEN0);
    167e:	88 e0       	ldi	r24, 0x08	; 8
    1680:	80 93 c1 00 	sts	0x00C1, r24	; 0x8000c1 <__TEXT_REGION_LENGTH__+0x7f80c1>
	/* Set frame format: 8data, 2stop bit */
	//UCSR0C = (1<<USBS0)|(3<<UCSZ00);
	UCSR0C = 0x06;
    1684:	86 e0       	ldi	r24, 0x06	; 6
    1686:	80 93 c2 00 	sts	0x00C2, r24	; 0x8000c2 <__TEXT_REGION_LENGTH__+0x7f80c2>
    168a:	08 95       	ret

Disassembly of section .text.USART_Transmit:

00001642 <USART_Transmit>:
}

void USART_Transmit(unsigned char data)
{
	uart_tx_done = 0;
    1642:	10 92 3d 01 	sts	0x013D, r1	; 0x80013d <uart_tx_done>
	
	/* Wait for empty transmit buffer */
	while (!(UCSR0A & (1<<UDRE0)))
    1646:	90 91 c0 00 	lds	r25, 0x00C0	; 0x8000c0 <__TEXT_REGION_LENGTH__+0x7f80c0>
    164a:	95 ff       	sbrs	r25, 5
    164c:	fc cf       	rjmp	.-8      	; 0x1646 <USART_Transmit+0x4>
	;
	/* Put data into buffer, sends the data */
	if(uart_tx_done!=1)
    164e:	90 91 3d 01 	lds	r25, 0x013D	; 0x80013d <uart_tx_done>
    1652:	91 30       	cpi	r25, 0x01	; 1
    1654:	11 f0       	breq	.+4      	; 0x165a <USART_Transmit+0x18>
	{
		UDR0 = data;
    1656:	80 93 c6 00 	sts	0x00C6, r24	; 0x8000c6 <__TEXT_REGION_LENGTH__+0x7f80c6>
    165a:	08 95       	ret

Disassembly of section .text.USART_SendString:

0000156c <USART_SendString>:
	}
}

void USART_SendString(unsigned char *data)
{
    156c:	0f 93       	push	r16
    156e:	1f 93       	push	r17
    1570:	cf 93       	push	r28
    1572:	df 93       	push	r29
    1574:	8c 01       	movw	r16, r24
	uint16_t i = 0;
    1576:	c0 e0       	ldi	r28, 0x00	; 0
    1578:	d0 e0       	ldi	r29, 0x00	; 0
	while(data[i] != 0)
    157a:	03 c0       	rjmp	.+6      	; 0x1582 <USART_SendString+0x16>
	{
		USART_Transmit(data[i]);
    157c:	0e 94 21 0b 	call	0x1642	; 0x1642 <USART_Transmit>
		i++;	
    1580:	21 96       	adiw	r28, 0x01	; 1
}

void USART_SendString(unsigned char *data)
{
	uint16_t i = 0;
	while(data[i] != 0)
    1582:	f8 01       	movw	r30, r16
    1584:	ec 0f       	add	r30, r28
    1586:	fd 1f       	adc	r31, r29
    1588:	80 81       	ld	r24, Z
    158a:	81 11       	cpse	r24, r1
    158c:	f7 cf       	rjmp	.-18     	; 0x157c <USART_SendString+0x10>
	{
		USART_Transmit(data[i]);
		i++;	
	}
	//USART_Transmit(data[i]);
}
    158e:	df 91       	pop	r29
    1590:	cf 91       	pop	r28
    1592:	1f 91       	pop	r17
    1594:	0f 91       	pop	r16
    1596:	08 95       	ret

Disassembly of section .text.libgcc.div:

00001598 <__divmodhi4>:
    1598:	97 fb       	bst	r25, 7
    159a:	07 2e       	mov	r0, r23
    159c:	16 f4       	brtc	.+4      	; 0x15a2 <__divmodhi4+0xa>
    159e:	00 94       	com	r0
    15a0:	07 d0       	rcall	.+14     	; 0x15b0 <__divmodhi4_neg1>
    15a2:	77 fd       	sbrc	r23, 7
    15a4:	09 d0       	rcall	.+18     	; 0x15b8 <__divmodhi4_neg2>
    15a6:	0e 94 e0 0a 	call	0x15c0	; 0x15c0 <__udivmodhi4>
    15aa:	07 fc       	sbrc	r0, 7
    15ac:	05 d0       	rcall	.+10     	; 0x15b8 <__divmodhi4_neg2>
    15ae:	3e f4       	brtc	.+14     	; 0x15be <__divmodhi4_exit>

000015b0 <__divmodhi4_neg1>:
    15b0:	90 95       	com	r25
    15b2:	81 95       	neg	r24
    15b4:	9f 4f       	sbci	r25, 0xFF	; 255
    15b6:	08 95       	ret

000015b8 <__divmodhi4_neg2>:
    15b8:	70 95       	com	r23
    15ba:	61 95       	neg	r22
    15bc:	7f 4f       	sbci	r23, 0xFF	; 255

000015be <__divmodhi4_exit>:
    15be:	08 95       	ret

Disassembly of section .text.libgcc:

0000165c <__movmemx_qi>:
    165c:	99 27       	eor	r25, r25

0000165e <__movmemx_hi>:
    165e:	77 fd       	sbrc	r23, 7
    1660:	05 c0       	rjmp	.+10     	; 0x166c <__movmemx_hi+0xe>
    1662:	05 90       	lpm	r0, Z+
    1664:	0d 92       	st	X+, r0
    1666:	01 97       	sbiw	r24, 0x01	; 1
    1668:	e1 f7       	brne	.-8      	; 0x1662 <__movmemx_hi+0x4>
    166a:	08 95       	ret
    166c:	01 90       	ld	r0, Z+
    166e:	0d 92       	st	X+, r0
    1670:	01 97       	sbiw	r24, 0x01	; 1
    1672:	e1 f7       	brne	.-8      	; 0x166c <__movmemx_hi+0xe>
    1674:	08 95       	ret

Disassembly of section .text.libgcc.div:

000015c0 <__udivmodhi4>:
    15c0:	aa 1b       	sub	r26, r26
    15c2:	bb 1b       	sub	r27, r27
    15c4:	51 e1       	ldi	r21, 0x11	; 17
    15c6:	07 c0       	rjmp	.+14     	; 0x15d6 <__udivmodhi4_ep>

000015c8 <__udivmodhi4_loop>:
    15c8:	aa 1f       	adc	r26, r26
    15ca:	bb 1f       	adc	r27, r27
    15cc:	a6 17       	cp	r26, r22
    15ce:	b7 07       	cpc	r27, r23
    15d0:	10 f0       	brcs	.+4      	; 0x15d6 <__udivmodhi4_ep>
    15d2:	a6 1b       	sub	r26, r22
    15d4:	b7 0b       	sbc	r27, r23

000015d6 <__udivmodhi4_ep>:
    15d6:	88 1f       	adc	r24, r24
    15d8:	99 1f       	adc	r25, r25
    15da:	5a 95       	dec	r21
    15dc:	a9 f7       	brne	.-22     	; 0x15c8 <__udivmodhi4_loop>
    15de:	80 95       	com	r24
    15e0:	90 95       	com	r25
    15e2:	bc 01       	movw	r22, r24
    15e4:	cd 01       	movw	r24, r26
    15e6:	08 95       	ret

Disassembly of section .text.avrlibc:

0000107e <do_rand>:
    107e:	8f 92       	push	r8
    1080:	9f 92       	push	r9
    1082:	af 92       	push	r10
    1084:	bf 92       	push	r11
    1086:	cf 92       	push	r12
    1088:	df 92       	push	r13
    108a:	ef 92       	push	r14
    108c:	ff 92       	push	r15
    108e:	cf 93       	push	r28
    1090:	df 93       	push	r29
    1092:	ec 01       	movw	r28, r24
    1094:	68 81       	ld	r22, Y
    1096:	79 81       	ldd	r23, Y+1	; 0x01
    1098:	8a 81       	ldd	r24, Y+2	; 0x02
    109a:	9b 81       	ldd	r25, Y+3	; 0x03
    109c:	61 15       	cp	r22, r1
    109e:	71 05       	cpc	r23, r1
    10a0:	81 05       	cpc	r24, r1
    10a2:	91 05       	cpc	r25, r1
    10a4:	21 f4       	brne	.+8      	; 0x10ae <do_rand+0x30>
    10a6:	64 e2       	ldi	r22, 0x24	; 36
    10a8:	79 ed       	ldi	r23, 0xD9	; 217
    10aa:	8b e5       	ldi	r24, 0x5B	; 91
    10ac:	97 e0       	ldi	r25, 0x07	; 7
    10ae:	2d e1       	ldi	r18, 0x1D	; 29
    10b0:	33 ef       	ldi	r19, 0xF3	; 243
    10b2:	41 e0       	ldi	r20, 0x01	; 1
    10b4:	50 e0       	ldi	r21, 0x00	; 0
    10b6:	0e 94 9f 0a 	call	0x153e	; 0x153e <__divmodsi4>
    10ba:	49 01       	movw	r8, r18
    10bc:	5a 01       	movw	r10, r20
    10be:	9b 01       	movw	r18, r22
    10c0:	ac 01       	movw	r20, r24
    10c2:	a7 ea       	ldi	r26, 0xA7	; 167
    10c4:	b1 e4       	ldi	r27, 0x41	; 65
    10c6:	0e 94 46 0b 	call	0x168c	; 0x168c <__muluhisi3>
    10ca:	6b 01       	movw	r12, r22
    10cc:	7c 01       	movw	r14, r24
    10ce:	ac ee       	ldi	r26, 0xEC	; 236
    10d0:	b4 ef       	ldi	r27, 0xF4	; 244
    10d2:	a5 01       	movw	r20, r10
    10d4:	94 01       	movw	r18, r8
    10d6:	0e 94 5c 0b 	call	0x16b8	; 0x16b8 <__mulohisi3>
    10da:	dc 01       	movw	r26, r24
    10dc:	cb 01       	movw	r24, r22
    10de:	8c 0d       	add	r24, r12
    10e0:	9d 1d       	adc	r25, r13
    10e2:	ae 1d       	adc	r26, r14
    10e4:	bf 1d       	adc	r27, r15
    10e6:	b7 ff       	sbrs	r27, 7
    10e8:	03 c0       	rjmp	.+6      	; 0x10f0 <do_rand+0x72>
    10ea:	01 97       	sbiw	r24, 0x01	; 1
    10ec:	a1 09       	sbc	r26, r1
    10ee:	b0 48       	sbci	r27, 0x80	; 128
    10f0:	88 83       	st	Y, r24
    10f2:	99 83       	std	Y+1, r25	; 0x01
    10f4:	aa 83       	std	Y+2, r26	; 0x02
    10f6:	bb 83       	std	Y+3, r27	; 0x03
    10f8:	9f 77       	andi	r25, 0x7F	; 127
    10fa:	df 91       	pop	r29
    10fc:	cf 91       	pop	r28
    10fe:	ff 90       	pop	r15
    1100:	ef 90       	pop	r14
    1102:	df 90       	pop	r13
    1104:	cf 90       	pop	r12
    1106:	bf 90       	pop	r11
    1108:	af 90       	pop	r10
    110a:	9f 90       	pop	r9
    110c:	8f 90       	pop	r8
    110e:	08 95       	ret

00001110 <rand_r>:
    1110:	0e 94 3f 08 	call	0x107e	; 0x107e <do_rand>
    1114:	08 95       	ret

00001116 <rand>:
    1116:	89 e0       	ldi	r24, 0x09	; 9
    1118:	91 e0       	ldi	r25, 0x01	; 1
    111a:	0e 94 3f 08 	call	0x107e	; 0x107e <do_rand>
    111e:	08 95       	ret

00001120 <srand>:
    1120:	a0 e0       	ldi	r26, 0x00	; 0
    1122:	b0 e0       	ldi	r27, 0x00	; 0
    1124:	e9 e0       	ldi	r30, 0x09	; 9
    1126:	f1 e0       	ldi	r31, 0x01	; 1
    1128:	80 83       	st	Z, r24
    112a:	91 83       	std	Z+1, r25	; 0x01
    112c:	a2 83       	std	Z+2, r26	; 0x02
    112e:	b3 83       	std	Z+3, r27	; 0x03
    1130:	08 95       	ret

Disassembly of section .text.avrlibc:

00001510 <strcat>:
    1510:	9a 01       	movw	r18, r20
    1512:	46 2f       	mov	r20, r22
    1514:	dc 01       	movw	r26, r24
    1516:	bd 01       	movw	r22, r26
    1518:	6f 5f       	subi	r22, 0xFF	; 255
    151a:	7f 4f       	sbci	r23, 0xFF	; 255
    151c:	5c 91       	ld	r21, X
    151e:	55 23       	and	r21, r21
    1520:	11 f0       	breq	.+4      	; 0x1526 <strcat+0x16>
    1522:	db 01       	movw	r26, r22
    1524:	f8 cf       	rjmp	.-16     	; 0x1516 <strcat+0x6>
    1526:	f9 01       	movw	r30, r18
    1528:	54 91       	lpm	r21, Z
    152a:	47 fd       	sbrc	r20, 7
    152c:	50 81       	ld	r21, Z
    152e:	5d 93       	st	X+, r21
    1530:	55 23       	and	r21, r21
    1532:	21 f0       	breq	.+8      	; 0x153c <strcat+0x2c>
    1534:	2f 5f       	subi	r18, 0xFF	; 255
    1536:	3f 4f       	sbci	r19, 0xFF	; 255
    1538:	4f 4f       	sbci	r20, 0xFF	; 255
    153a:	f5 cf       	rjmp	.-22     	; 0x1526 <strcat+0x16>
    153c:	08 95       	ret

Disassembly of section .text.avrlibc:

00001606 <strcpy>:
    1606:	9a 01       	movw	r18, r20
    1608:	46 2f       	mov	r20, r22
    160a:	dc 01       	movw	r26, r24
    160c:	f9 01       	movw	r30, r18
    160e:	54 91       	lpm	r21, Z
    1610:	47 fd       	sbrc	r20, 7
    1612:	50 81       	ld	r21, Z
    1614:	5d 93       	st	X+, r21
    1616:	55 23       	and	r21, r21
    1618:	21 f0       	breq	.+8      	; 0x1622 <strcpy+0x1c>
    161a:	2f 5f       	subi	r18, 0xFF	; 255
    161c:	3f 4f       	sbci	r19, 0xFF	; 255
    161e:	4f 4f       	sbci	r20, 0xFF	; 255
    1620:	f5 cf       	rjmp	.-22     	; 0x160c <strcpy+0x6>
    1622:	08 95       	ret

Disassembly of section .text.avrlibc:

000013e2 <sprintf>:
    13e2:	af e0       	ldi	r26, 0x0F	; 15
    13e4:	b0 e0       	ldi	r27, 0x00	; 0
    13e6:	e7 ef       	ldi	r30, 0xF7	; 247
    13e8:	f9 e0       	ldi	r31, 0x09	; 9
    13ea:	0c 94 44 0a 	jmp	0x1488	; 0x1488 <__prologue_saves__+0x1c>
    13ee:	0e 89       	ldd	r16, Y+22	; 0x16
    13f0:	1f 89       	ldd	r17, Y+23	; 0x17
    13f2:	86 e0       	ldi	r24, 0x06	; 6
    13f4:	8d 83       	std	Y+5, r24	; 0x05
    13f6:	1a 83       	std	Y+2, r17	; 0x02
    13f8:	09 83       	std	Y+1, r16	; 0x01
    13fa:	8f ef       	ldi	r24, 0xFF	; 255
    13fc:	9f e7       	ldi	r25, 0x7F	; 127
    13fe:	9f 83       	std	Y+7, r25	; 0x07
    1400:	8e 83       	std	Y+6, r24	; 0x06
    1402:	9e 01       	movw	r18, r28
    1404:	25 5e       	subi	r18, 0xE5	; 229
    1406:	3f 4f       	sbci	r19, 0xFF	; 255
    1408:	48 8d       	ldd	r20, Y+24	; 0x18
    140a:	59 8d       	ldd	r21, Y+25	; 0x19
    140c:	6a 8d       	ldd	r22, Y+26	; 0x1a
    140e:	ce 01       	movw	r24, r28
    1410:	01 96       	adiw	r24, 0x01	; 1
    1412:	0e 94 ee 02 	call	0x5dc	; 0x5dc <vfprintf>
    1416:	e8 85       	ldd	r30, Y+8	; 0x08
    1418:	f9 85       	ldd	r31, Y+9	; 0x09
    141a:	e0 0f       	add	r30, r16
    141c:	f1 1f       	adc	r31, r17
    141e:	10 82       	st	Z, r1
    1420:	2f 96       	adiw	r28, 0x0f	; 15
    1422:	e4 e0       	ldi	r30, 0x04	; 4
    1424:	0c 94 7b 0a 	jmp	0x14f6	; 0x14f6 <__epilogue_restores__+0x1c>

Disassembly of section .text.avrlibc:

000005dc <vfprintf>:
 5dc:	2f 92       	push	r2
 5de:	3f 92       	push	r3
 5e0:	4f 92       	push	r4
 5e2:	6f 92       	push	r6
 5e4:	7f 92       	push	r7
 5e6:	8f 92       	push	r8
 5e8:	9f 92       	push	r9
 5ea:	af 92       	push	r10
 5ec:	bf 92       	push	r11
 5ee:	cf 92       	push	r12
 5f0:	df 92       	push	r13
 5f2:	ef 92       	push	r14
 5f4:	ff 92       	push	r15
 5f6:	0f 93       	push	r16
 5f8:	1f 93       	push	r17
 5fa:	cf 93       	push	r28
 5fc:	df 93       	push	r29
 5fe:	cd b7       	in	r28, 0x3d	; 61
 600:	de b7       	in	r29, 0x3e	; 62
 602:	62 97       	sbiw	r28, 0x12	; 18
 604:	0f b6       	in	r0, 0x3f	; 63
 606:	f8 94       	cli
 608:	de bf       	out	0x3e, r29	; 62
 60a:	0f be       	out	0x3f, r0	; 63
 60c:	cd bf       	out	0x3d, r28	; 61
 60e:	6c 01       	movw	r12, r24
 610:	3a 01       	movw	r6, r20
 612:	86 2e       	mov	r8, r22
 614:	79 01       	movw	r14, r18
 616:	fc 01       	movw	r30, r24
 618:	10 86       	std	Z+8, r1	; 0x08
 61a:	17 82       	std	Z+7, r1	; 0x07
 61c:	84 81       	ldd	r24, Z+4	; 0x04
 61e:	81 ff       	sbrs	r24, 1
 620:	e7 c1       	rjmp	.+974    	; 0x9f0 <__stack+0xf1>
 622:	9e 01       	movw	r18, r28
 624:	2f 5f       	subi	r18, 0xFF	; 255
 626:	3f 4f       	sbci	r19, 0xFF	; 255
 628:	3d 87       	std	Y+13, r19	; 0x0d
 62a:	2c 87       	std	Y+12, r18	; 0x0c
 62c:	c9 01       	movw	r24, r18
 62e:	a0 e8       	ldi	r26, 0x80	; 128
 630:	88 8b       	std	Y+16, r24	; 0x10
 632:	99 8b       	std	Y+17, r25	; 0x11
 634:	aa 8b       	std	Y+18, r26	; 0x12
 636:	9f e3       	ldi	r25, 0x3F	; 63
 638:	99 2e       	mov	r9, r25
 63a:	f3 01       	movw	r30, r6
 63c:	84 91       	lpm	r24, Z
 63e:	87 fc       	sbrc	r8, 7
 640:	80 81       	ld	r24, Z
 642:	88 23       	and	r24, r24
 644:	09 f4       	brne	.+2      	; 0x648 <vfprintf+0x6c>
 646:	d0 c1       	rjmp	.+928    	; 0x9e8 <__stack+0xe9>
 648:	48 2d       	mov	r20, r8
 64a:	93 01       	movw	r18, r6
 64c:	2f 5f       	subi	r18, 0xFF	; 255
 64e:	3f 4f       	sbci	r19, 0xFF	; 255
 650:	4f 4f       	sbci	r20, 0xFF	; 255
 652:	85 32       	cpi	r24, 0x25	; 37
 654:	19 f0       	breq	.+6      	; 0x65c <vfprintf+0x80>
 656:	39 01       	movw	r6, r18
 658:	84 2e       	mov	r8, r20
 65a:	0a c0       	rjmp	.+20     	; 0x670 <vfprintf+0x94>
 65c:	f9 01       	movw	r30, r18
 65e:	84 91       	lpm	r24, Z
 660:	47 fd       	sbrc	r20, 7
 662:	80 81       	ld	r24, Z
 664:	92 e0       	ldi	r25, 0x02	; 2
 666:	69 0e       	add	r6, r25
 668:	71 1c       	adc	r7, r1
 66a:	81 1c       	adc	r8, r1
 66c:	85 32       	cpi	r24, 0x25	; 37
 66e:	29 f4       	brne	.+10     	; 0x67a <vfprintf+0x9e>
 670:	b6 01       	movw	r22, r12
 672:	90 e0       	ldi	r25, 0x00	; 0
 674:	0e 94 31 09 	call	0x1262	; 0x1262 <fputc>
 678:	e0 cf       	rjmp	.-64     	; 0x63a <vfprintf+0x5e>
 67a:	b1 2c       	mov	r11, r1
 67c:	00 e0       	ldi	r16, 0x00	; 0
 67e:	10 e0       	ldi	r17, 0x00	; 0
 680:	10 32       	cpi	r17, 0x20	; 32
 682:	a0 f4       	brcc	.+40     	; 0x6ac <vfprintf+0xd0>
 684:	8b 32       	cpi	r24, 0x2B	; 43
 686:	69 f0       	breq	.+26     	; 0x6a2 <vfprintf+0xc6>
 688:	30 f4       	brcc	.+12     	; 0x696 <vfprintf+0xba>
 68a:	80 32       	cpi	r24, 0x20	; 32
 68c:	59 f0       	breq	.+22     	; 0x6a4 <vfprintf+0xc8>
 68e:	83 32       	cpi	r24, 0x23	; 35
 690:	69 f4       	brne	.+26     	; 0x6ac <vfprintf+0xd0>
 692:	10 61       	ori	r17, 0x10	; 16
 694:	2c c0       	rjmp	.+88     	; 0x6ee <vfprintf+0x112>
 696:	8d 32       	cpi	r24, 0x2D	; 45
 698:	39 f0       	breq	.+14     	; 0x6a8 <vfprintf+0xcc>
 69a:	80 33       	cpi	r24, 0x30	; 48
 69c:	39 f4       	brne	.+14     	; 0x6ac <vfprintf+0xd0>
 69e:	11 60       	ori	r17, 0x01	; 1
 6a0:	26 c0       	rjmp	.+76     	; 0x6ee <vfprintf+0x112>
 6a2:	12 60       	ori	r17, 0x02	; 2
 6a4:	14 60       	ori	r17, 0x04	; 4
 6a6:	23 c0       	rjmp	.+70     	; 0x6ee <vfprintf+0x112>
 6a8:	18 60       	ori	r17, 0x08	; 8
 6aa:	21 c0       	rjmp	.+66     	; 0x6ee <vfprintf+0x112>
 6ac:	17 fd       	sbrc	r17, 7
 6ae:	29 c0       	rjmp	.+82     	; 0x702 <vfprintf+0x126>
 6b0:	90 ed       	ldi	r25, 0xD0	; 208
 6b2:	98 0f       	add	r25, r24
 6b4:	9a 30       	cpi	r25, 0x0A	; 10
 6b6:	78 f4       	brcc	.+30     	; 0x6d6 <vfprintf+0xfa>
 6b8:	16 ff       	sbrs	r17, 6
 6ba:	06 c0       	rjmp	.+12     	; 0x6c8 <vfprintf+0xec>
 6bc:	aa e0       	ldi	r26, 0x0A	; 10
 6be:	ba 9e       	mul	r11, r26
 6c0:	90 0d       	add	r25, r0
 6c2:	11 24       	eor	r1, r1
 6c4:	b9 2e       	mov	r11, r25
 6c6:	13 c0       	rjmp	.+38     	; 0x6ee <vfprintf+0x112>
 6c8:	ea e0       	ldi	r30, 0x0A	; 10
 6ca:	0e 9f       	mul	r16, r30
 6cc:	90 0d       	add	r25, r0
 6ce:	11 24       	eor	r1, r1
 6d0:	09 2f       	mov	r16, r25
 6d2:	10 62       	ori	r17, 0x20	; 32
 6d4:	0c c0       	rjmp	.+24     	; 0x6ee <vfprintf+0x112>
 6d6:	8e 32       	cpi	r24, 0x2E	; 46
 6d8:	21 f4       	brne	.+8      	; 0x6e2 <vfprintf+0x106>
 6da:	16 fd       	sbrc	r17, 6
 6dc:	85 c1       	rjmp	.+778    	; 0x9e8 <__stack+0xe9>
 6de:	10 64       	ori	r17, 0x40	; 64
 6e0:	06 c0       	rjmp	.+12     	; 0x6ee <vfprintf+0x112>
 6e2:	8c 36       	cpi	r24, 0x6C	; 108
 6e4:	11 f4       	brne	.+4      	; 0x6ea <vfprintf+0x10e>
 6e6:	10 68       	ori	r17, 0x80	; 128
 6e8:	02 c0       	rjmp	.+4      	; 0x6ee <vfprintf+0x112>
 6ea:	88 36       	cpi	r24, 0x68	; 104
 6ec:	51 f4       	brne	.+20     	; 0x702 <vfprintf+0x126>
 6ee:	f3 01       	movw	r30, r6
 6f0:	84 91       	lpm	r24, Z
 6f2:	87 fc       	sbrc	r8, 7
 6f4:	80 81       	ld	r24, Z
 6f6:	ff ef       	ldi	r31, 0xFF	; 255
 6f8:	6f 1a       	sub	r6, r31
 6fa:	7f 0a       	sbc	r7, r31
 6fc:	8f 0a       	sbc	r8, r31
 6fe:	81 11       	cpse	r24, r1
 700:	bf cf       	rjmp	.-130    	; 0x680 <vfprintf+0xa4>
 702:	98 2f       	mov	r25, r24
 704:	9f 7d       	andi	r25, 0xDF	; 223
 706:	95 54       	subi	r25, 0x45	; 69
 708:	93 30       	cpi	r25, 0x03	; 3
 70a:	28 f4       	brcc	.+10     	; 0x716 <vfprintf+0x13a>
 70c:	24 e0       	ldi	r18, 0x04	; 4
 70e:	e2 0e       	add	r14, r18
 710:	f1 1c       	adc	r15, r1
 712:	99 82       	std	Y+1, r9	; 0x01
 714:	0f c0       	rjmp	.+30     	; 0x734 <vfprintf+0x158>
 716:	83 36       	cpi	r24, 0x63	; 99
 718:	31 f0       	breq	.+12     	; 0x726 <vfprintf+0x14a>
 71a:	83 37       	cpi	r24, 0x73	; 115
 71c:	91 f0       	breq	.+36     	; 0x742 <vfprintf+0x166>
 71e:	83 35       	cpi	r24, 0x53	; 83
 720:	09 f0       	breq	.+2      	; 0x724 <vfprintf+0x148>
 722:	63 c0       	rjmp	.+198    	; 0x7ea <vfprintf+0x20e>
 724:	27 c0       	rjmp	.+78     	; 0x774 <vfprintf+0x198>
 726:	f7 01       	movw	r30, r14
 728:	80 81       	ld	r24, Z
 72a:	89 83       	std	Y+1, r24	; 0x01
 72c:	97 01       	movw	r18, r14
 72e:	2e 5f       	subi	r18, 0xFE	; 254
 730:	3f 4f       	sbci	r19, 0xFF	; 255
 732:	79 01       	movw	r14, r18
 734:	28 88       	ldd	r2, Y+16	; 0x10
 736:	39 88       	ldd	r3, Y+17	; 0x11
 738:	4a 88       	ldd	r4, Y+18	; 0x12
 73a:	aa 24       	eor	r10, r10
 73c:	a3 94       	inc	r10
 73e:	b1 2c       	mov	r11, r1
 740:	17 c0       	rjmp	.+46     	; 0x770 <vfprintf+0x194>
 742:	a7 01       	movw	r20, r14
 744:	4d 5f       	subi	r20, 0xFD	; 253
 746:	5f 4f       	sbci	r21, 0xFF	; 255
 748:	5f 87       	std	Y+15, r21	; 0x0f
 74a:	4e 87       	std	Y+14, r20	; 0x0e
 74c:	f7 01       	movw	r30, r14
 74e:	20 80       	ld	r2, Z
 750:	31 80       	ldd	r3, Z+1	; 0x01
 752:	42 80       	ldd	r4, Z+2	; 0x02
 754:	16 ff       	sbrs	r17, 6
 756:	03 c0       	rjmp	.+6      	; 0x75e <vfprintf+0x182>
 758:	4b 2d       	mov	r20, r11
 75a:	50 e0       	ldi	r21, 0x00	; 0
 75c:	02 c0       	rjmp	.+4      	; 0x762 <vfprintf+0x186>
 75e:	4f ef       	ldi	r20, 0xFF	; 255
 760:	5f ef       	ldi	r21, 0xFF	; 255
 762:	84 2d       	mov	r24, r4
 764:	b1 01       	movw	r22, r2
 766:	0e 94 52 0a 	call	0x14a4	; 0x14a4 <strnlen>
 76a:	5c 01       	movw	r10, r24
 76c:	ee 84       	ldd	r14, Y+14	; 0x0e
 76e:	ff 84       	ldd	r15, Y+15	; 0x0f
 770:	1f 77       	andi	r17, 0x7F	; 127
 772:	18 c0       	rjmp	.+48     	; 0x7a4 <vfprintf+0x1c8>
 774:	97 01       	movw	r18, r14
 776:	2d 5f       	subi	r18, 0xFD	; 253
 778:	3f 4f       	sbci	r19, 0xFF	; 255
 77a:	3f 87       	std	Y+15, r19	; 0x0f
 77c:	2e 87       	std	Y+14, r18	; 0x0e
 77e:	f7 01       	movw	r30, r14
 780:	20 80       	ld	r2, Z
 782:	31 80       	ldd	r3, Z+1	; 0x01
 784:	42 80       	ldd	r4, Z+2	; 0x02
 786:	16 ff       	sbrs	r17, 6
 788:	03 c0       	rjmp	.+6      	; 0x790 <vfprintf+0x1b4>
 78a:	4b 2d       	mov	r20, r11
 78c:	50 e0       	ldi	r21, 0x00	; 0
 78e:	02 c0       	rjmp	.+4      	; 0x794 <vfprintf+0x1b8>
 790:	4f ef       	ldi	r20, 0xFF	; 255
 792:	5f ef       	ldi	r21, 0xFF	; 255
 794:	84 2d       	mov	r24, r4
 796:	b1 01       	movw	r22, r2
 798:	0e 94 52 0a 	call	0x14a4	; 0x14a4 <strnlen>
 79c:	5c 01       	movw	r10, r24
 79e:	10 68       	ori	r17, 0x80	; 128
 7a0:	ee 84       	ldd	r14, Y+14	; 0x0e
 7a2:	ff 84       	ldd	r15, Y+15	; 0x0f
 7a4:	13 fd       	sbrc	r17, 3
 7a6:	1d c0       	rjmp	.+58     	; 0x7e2 <vfprintf+0x206>
 7a8:	80 2f       	mov	r24, r16
 7aa:	90 e0       	ldi	r25, 0x00	; 0
 7ac:	a8 16       	cp	r10, r24
 7ae:	b9 06       	cpc	r11, r25
 7b0:	c0 f4       	brcc	.+48     	; 0x7e2 <vfprintf+0x206>
 7b2:	b6 01       	movw	r22, r12
 7b4:	80 e2       	ldi	r24, 0x20	; 32
 7b6:	90 e0       	ldi	r25, 0x00	; 0
 7b8:	0e 94 31 09 	call	0x1262	; 0x1262 <fputc>
 7bc:	01 50       	subi	r16, 0x01	; 1
 7be:	f4 cf       	rjmp	.-24     	; 0x7a8 <vfprintf+0x1cc>
 7c0:	f1 01       	movw	r30, r2
 7c2:	84 91       	lpm	r24, Z
 7c4:	47 fc       	sbrc	r4, 7
 7c6:	80 81       	ld	r24, Z
 7c8:	ff ef       	ldi	r31, 0xFF	; 255
 7ca:	2f 1a       	sub	r2, r31
 7cc:	3f 0a       	sbc	r3, r31
 7ce:	4f 0a       	sbc	r4, r31
 7d0:	b6 01       	movw	r22, r12
 7d2:	90 e0       	ldi	r25, 0x00	; 0
 7d4:	0e 94 31 09 	call	0x1262	; 0x1262 <fputc>
 7d8:	01 11       	cpse	r16, r1
 7da:	01 50       	subi	r16, 0x01	; 1
 7dc:	21 e0       	ldi	r18, 0x01	; 1
 7de:	a2 1a       	sub	r10, r18
 7e0:	b1 08       	sbc	r11, r1
 7e2:	a1 14       	cp	r10, r1
 7e4:	b1 04       	cpc	r11, r1
 7e6:	61 f7       	brne	.-40     	; 0x7c0 <vfprintf+0x1e4>
 7e8:	f5 c0       	rjmp	.+490    	; 0x9d4 <__stack+0xd5>
 7ea:	84 36       	cpi	r24, 0x64	; 100
 7ec:	11 f0       	breq	.+4      	; 0x7f2 <vfprintf+0x216>
 7ee:	89 36       	cpi	r24, 0x69	; 105
 7f0:	71 f5       	brne	.+92     	; 0x84e <__DATA_REGION_LENGTH__+0x4e>
 7f2:	f7 01       	movw	r30, r14
 7f4:	17 ff       	sbrs	r17, 7
 7f6:	08 c0       	rjmp	.+16     	; 0x808 <__DATA_REGION_LENGTH__+0x8>
 7f8:	60 81       	ld	r22, Z
 7fa:	71 81       	ldd	r23, Z+1	; 0x01
 7fc:	82 81       	ldd	r24, Z+2	; 0x02
 7fe:	93 81       	ldd	r25, Z+3	; 0x03
 800:	97 01       	movw	r18, r14
 802:	2c 5f       	subi	r18, 0xFC	; 252
 804:	3f 4f       	sbci	r19, 0xFF	; 255
 806:	09 c0       	rjmp	.+18     	; 0x81a <__DATA_REGION_LENGTH__+0x1a>
 808:	60 81       	ld	r22, Z
 80a:	71 81       	ldd	r23, Z+1	; 0x01
 80c:	07 2e       	mov	r0, r23
 80e:	00 0c       	add	r0, r0
 810:	88 0b       	sbc	r24, r24
 812:	99 0b       	sbc	r25, r25
 814:	97 01       	movw	r18, r14
 816:	2e 5f       	subi	r18, 0xFE	; 254
 818:	3f 4f       	sbci	r19, 0xFF	; 255
 81a:	79 01       	movw	r14, r18
 81c:	1f 76       	andi	r17, 0x6F	; 111
 81e:	31 2e       	mov	r3, r17
 820:	97 ff       	sbrs	r25, 7
 822:	0a c0       	rjmp	.+20     	; 0x838 <__DATA_REGION_LENGTH__+0x38>
 824:	90 95       	com	r25
 826:	80 95       	com	r24
 828:	70 95       	com	r23
 82a:	61 95       	neg	r22
 82c:	7f 4f       	sbci	r23, 0xFF	; 255
 82e:	8f 4f       	sbci	r24, 0xFF	; 255
 830:	9f 4f       	sbci	r25, 0xFF	; 255
 832:	31 2f       	mov	r19, r17
 834:	30 68       	ori	r19, 0x80	; 128
 836:	33 2e       	mov	r3, r19
 838:	2a e0       	ldi	r18, 0x0A	; 10
 83a:	30 e0       	ldi	r19, 0x00	; 0
 83c:	ae 01       	movw	r20, r28
 83e:	4f 5f       	subi	r20, 0xFF	; 255
 840:	5f 4f       	sbci	r21, 0xFF	; 255
 842:	0e 94 e1 07 	call	0xfc2	; 0xfc2 <__ultoa_invert>
 846:	48 2e       	mov	r4, r24
 848:	4c 85       	ldd	r20, Y+12	; 0x0c
 84a:	44 1a       	sub	r4, r20
 84c:	4a c0       	rjmp	.+148    	; 0x8e2 <__DATA_REGION_LENGTH__+0xe2>
 84e:	85 37       	cpi	r24, 0x75	; 117
 850:	29 f4       	brne	.+10     	; 0x85c <__DATA_REGION_LENGTH__+0x5c>
 852:	1f 7e       	andi	r17, 0xEF	; 239
 854:	a1 2e       	mov	r10, r17
 856:	2a e0       	ldi	r18, 0x0A	; 10
 858:	30 e0       	ldi	r19, 0x00	; 0
 85a:	25 c0       	rjmp	.+74     	; 0x8a6 <__DATA_REGION_LENGTH__+0xa6>
 85c:	51 2f       	mov	r21, r17
 85e:	59 7f       	andi	r21, 0xF9	; 249
 860:	a5 2e       	mov	r10, r21
 862:	8f 36       	cpi	r24, 0x6F	; 111
 864:	c1 f0       	breq	.+48     	; 0x896 <__DATA_REGION_LENGTH__+0x96>
 866:	18 f4       	brcc	.+6      	; 0x86e <__DATA_REGION_LENGTH__+0x6e>
 868:	88 35       	cpi	r24, 0x58	; 88
 86a:	79 f0       	breq	.+30     	; 0x88a <__DATA_REGION_LENGTH__+0x8a>
 86c:	bd c0       	rjmp	.+378    	; 0x9e8 <__stack+0xe9>
 86e:	80 37       	cpi	r24, 0x70	; 112
 870:	19 f0       	breq	.+6      	; 0x878 <__DATA_REGION_LENGTH__+0x78>
 872:	88 37       	cpi	r24, 0x78	; 120
 874:	21 f0       	breq	.+8      	; 0x87e <__DATA_REGION_LENGTH__+0x7e>
 876:	b8 c0       	rjmp	.+368    	; 0x9e8 <__stack+0xe9>
 878:	85 2f       	mov	r24, r21
 87a:	80 61       	ori	r24, 0x10	; 16
 87c:	a8 2e       	mov	r10, r24
 87e:	a4 fe       	sbrs	r10, 4
 880:	0d c0       	rjmp	.+26     	; 0x89c <__DATA_REGION_LENGTH__+0x9c>
 882:	9a 2d       	mov	r25, r10
 884:	94 60       	ori	r25, 0x04	; 4
 886:	a9 2e       	mov	r10, r25
 888:	09 c0       	rjmp	.+18     	; 0x89c <__DATA_REGION_LENGTH__+0x9c>
 88a:	14 ff       	sbrs	r17, 4
 88c:	0a c0       	rjmp	.+20     	; 0x8a2 <__DATA_REGION_LENGTH__+0xa2>
 88e:	a5 2f       	mov	r26, r21
 890:	a6 60       	ori	r26, 0x06	; 6
 892:	aa 2e       	mov	r10, r26
 894:	06 c0       	rjmp	.+12     	; 0x8a2 <__DATA_REGION_LENGTH__+0xa2>
 896:	28 e0       	ldi	r18, 0x08	; 8
 898:	30 e0       	ldi	r19, 0x00	; 0
 89a:	05 c0       	rjmp	.+10     	; 0x8a6 <__DATA_REGION_LENGTH__+0xa6>
 89c:	20 e1       	ldi	r18, 0x10	; 16
 89e:	30 e0       	ldi	r19, 0x00	; 0
 8a0:	02 c0       	rjmp	.+4      	; 0x8a6 <__DATA_REGION_LENGTH__+0xa6>
 8a2:	20 e1       	ldi	r18, 0x10	; 16
 8a4:	32 e0       	ldi	r19, 0x02	; 2
 8a6:	f7 01       	movw	r30, r14
 8a8:	a7 fe       	sbrs	r10, 7
 8aa:	08 c0       	rjmp	.+16     	; 0x8bc <__DATA_REGION_LENGTH__+0xbc>
 8ac:	60 81       	ld	r22, Z
 8ae:	71 81       	ldd	r23, Z+1	; 0x01
 8b0:	82 81       	ldd	r24, Z+2	; 0x02
 8b2:	93 81       	ldd	r25, Z+3	; 0x03
 8b4:	a7 01       	movw	r20, r14
 8b6:	4c 5f       	subi	r20, 0xFC	; 252
 8b8:	5f 4f       	sbci	r21, 0xFF	; 255
 8ba:	07 c0       	rjmp	.+14     	; 0x8ca <__DATA_REGION_LENGTH__+0xca>
 8bc:	60 81       	ld	r22, Z
 8be:	71 81       	ldd	r23, Z+1	; 0x01
 8c0:	80 e0       	ldi	r24, 0x00	; 0
 8c2:	90 e0       	ldi	r25, 0x00	; 0
 8c4:	a7 01       	movw	r20, r14
 8c6:	4e 5f       	subi	r20, 0xFE	; 254
 8c8:	5f 4f       	sbci	r21, 0xFF	; 255
 8ca:	7a 01       	movw	r14, r20
 8cc:	ae 01       	movw	r20, r28
 8ce:	4f 5f       	subi	r20, 0xFF	; 255
 8d0:	5f 4f       	sbci	r21, 0xFF	; 255
 8d2:	0e 94 e1 07 	call	0xfc2	; 0xfc2 <__ultoa_invert>
 8d6:	48 2e       	mov	r4, r24
 8d8:	5c 85       	ldd	r21, Y+12	; 0x0c
 8da:	45 1a       	sub	r4, r21
 8dc:	8a 2d       	mov	r24, r10
 8de:	8f 77       	andi	r24, 0x7F	; 127
 8e0:	38 2e       	mov	r3, r24
 8e2:	36 fe       	sbrs	r3, 6
 8e4:	0d c0       	rjmp	.+26     	; 0x900 <__stack+0x1>
 8e6:	93 2d       	mov	r25, r3
 8e8:	9e 7f       	andi	r25, 0xFE	; 254
 8ea:	a9 2e       	mov	r10, r25
 8ec:	4b 14       	cp	r4, r11
 8ee:	58 f4       	brcc	.+22     	; 0x906 <__stack+0x7>
 8f0:	34 fe       	sbrs	r3, 4
 8f2:	0b c0       	rjmp	.+22     	; 0x90a <__stack+0xb>
 8f4:	32 fc       	sbrc	r3, 2
 8f6:	09 c0       	rjmp	.+18     	; 0x90a <__stack+0xb>
 8f8:	a3 2d       	mov	r26, r3
 8fa:	ae 7e       	andi	r26, 0xEE	; 238
 8fc:	aa 2e       	mov	r10, r26
 8fe:	05 c0       	rjmp	.+10     	; 0x90a <__stack+0xb>
 900:	14 2d       	mov	r17, r4
 902:	a3 2c       	mov	r10, r3
 904:	03 c0       	rjmp	.+6      	; 0x90c <__stack+0xd>
 906:	14 2d       	mov	r17, r4
 908:	01 c0       	rjmp	.+2      	; 0x90c <__stack+0xd>
 90a:	1b 2d       	mov	r17, r11
 90c:	a4 fe       	sbrs	r10, 4
 90e:	0e c0       	rjmp	.+28     	; 0x92c <__stack+0x2d>
 910:	fe 01       	movw	r30, r28
 912:	e4 0d       	add	r30, r4
 914:	f1 1d       	adc	r31, r1
 916:	80 81       	ld	r24, Z
 918:	80 33       	cpi	r24, 0x30	; 48
 91a:	21 f4       	brne	.+8      	; 0x924 <__stack+0x25>
 91c:	ea 2d       	mov	r30, r10
 91e:	e9 7e       	andi	r30, 0xE9	; 233
 920:	ae 2e       	mov	r10, r30
 922:	08 c0       	rjmp	.+16     	; 0x934 <__stack+0x35>
 924:	a2 fe       	sbrs	r10, 2
 926:	05 c0       	rjmp	.+10     	; 0x932 <__stack+0x33>
 928:	1e 5f       	subi	r17, 0xFE	; 254
 92a:	04 c0       	rjmp	.+8      	; 0x934 <__stack+0x35>
 92c:	8a 2d       	mov	r24, r10
 92e:	86 78       	andi	r24, 0x86	; 134
 930:	09 f0       	breq	.+2      	; 0x934 <__stack+0x35>
 932:	1f 5f       	subi	r17, 0xFF	; 255
 934:	a3 fc       	sbrc	r10, 3
 936:	11 c0       	rjmp	.+34     	; 0x95a <__stack+0x5b>
 938:	a0 fe       	sbrs	r10, 0
 93a:	06 c0       	rjmp	.+12     	; 0x948 <__stack+0x49>
 93c:	10 17       	cp	r17, r16
 93e:	88 f4       	brcc	.+34     	; 0x962 <__stack+0x63>
 940:	04 0d       	add	r16, r4
 942:	b0 2e       	mov	r11, r16
 944:	b1 1a       	sub	r11, r17
 946:	0e c0       	rjmp	.+28     	; 0x964 <__stack+0x65>
 948:	10 17       	cp	r17, r16
 94a:	60 f4       	brcc	.+24     	; 0x964 <__stack+0x65>
 94c:	b6 01       	movw	r22, r12
 94e:	80 e2       	ldi	r24, 0x20	; 32
 950:	90 e0       	ldi	r25, 0x00	; 0
 952:	0e 94 31 09 	call	0x1262	; 0x1262 <fputc>
 956:	1f 5f       	subi	r17, 0xFF	; 255
 958:	f7 cf       	rjmp	.-18     	; 0x948 <__stack+0x49>
 95a:	10 17       	cp	r17, r16
 95c:	18 f4       	brcc	.+6      	; 0x964 <__stack+0x65>
 95e:	01 1b       	sub	r16, r17
 960:	02 c0       	rjmp	.+4      	; 0x966 <__stack+0x67>
 962:	b4 2c       	mov	r11, r4
 964:	00 e0       	ldi	r16, 0x00	; 0
 966:	a4 fe       	sbrs	r10, 4
 968:	10 c0       	rjmp	.+32     	; 0x98a <__stack+0x8b>
 96a:	b6 01       	movw	r22, r12
 96c:	80 e3       	ldi	r24, 0x30	; 48
 96e:	90 e0       	ldi	r25, 0x00	; 0
 970:	0e 94 31 09 	call	0x1262	; 0x1262 <fputc>
 974:	a2 fe       	sbrs	r10, 2
 976:	17 c0       	rjmp	.+46     	; 0x9a6 <__stack+0xa7>
 978:	a1 fc       	sbrc	r10, 1
 97a:	03 c0       	rjmp	.+6      	; 0x982 <__stack+0x83>
 97c:	88 e7       	ldi	r24, 0x78	; 120
 97e:	90 e0       	ldi	r25, 0x00	; 0
 980:	02 c0       	rjmp	.+4      	; 0x986 <__stack+0x87>
 982:	88 e5       	ldi	r24, 0x58	; 88
 984:	90 e0       	ldi	r25, 0x00	; 0
 986:	b6 01       	movw	r22, r12
 988:	0c c0       	rjmp	.+24     	; 0x9a2 <__stack+0xa3>
 98a:	8a 2d       	mov	r24, r10
 98c:	86 78       	andi	r24, 0x86	; 134
 98e:	59 f0       	breq	.+22     	; 0x9a6 <__stack+0xa7>
 990:	a1 fe       	sbrs	r10, 1
 992:	02 c0       	rjmp	.+4      	; 0x998 <__stack+0x99>
 994:	8b e2       	ldi	r24, 0x2B	; 43
 996:	01 c0       	rjmp	.+2      	; 0x99a <__stack+0x9b>
 998:	80 e2       	ldi	r24, 0x20	; 32
 99a:	a7 fc       	sbrc	r10, 7
 99c:	8d e2       	ldi	r24, 0x2D	; 45
 99e:	b6 01       	movw	r22, r12
 9a0:	90 e0       	ldi	r25, 0x00	; 0
 9a2:	0e 94 31 09 	call	0x1262	; 0x1262 <fputc>
 9a6:	4b 14       	cp	r4, r11
 9a8:	38 f4       	brcc	.+14     	; 0x9b8 <__stack+0xb9>
 9aa:	b6 01       	movw	r22, r12
 9ac:	80 e3       	ldi	r24, 0x30	; 48
 9ae:	90 e0       	ldi	r25, 0x00	; 0
 9b0:	0e 94 31 09 	call	0x1262	; 0x1262 <fputc>
 9b4:	ba 94       	dec	r11
 9b6:	f7 cf       	rjmp	.-18     	; 0x9a6 <__stack+0xa7>
 9b8:	4a 94       	dec	r4
 9ba:	e1 e0       	ldi	r30, 0x01	; 1
 9bc:	f0 e0       	ldi	r31, 0x00	; 0
 9be:	ec 0f       	add	r30, r28
 9c0:	fd 1f       	adc	r31, r29
 9c2:	e4 0d       	add	r30, r4
 9c4:	f1 1d       	adc	r31, r1
 9c6:	80 81       	ld	r24, Z
 9c8:	b6 01       	movw	r22, r12
 9ca:	90 e0       	ldi	r25, 0x00	; 0
 9cc:	0e 94 31 09 	call	0x1262	; 0x1262 <fputc>
 9d0:	41 10       	cpse	r4, r1
 9d2:	f2 cf       	rjmp	.-28     	; 0x9b8 <__stack+0xb9>
 9d4:	00 23       	and	r16, r16
 9d6:	09 f4       	brne	.+2      	; 0x9da <__stack+0xdb>
 9d8:	30 ce       	rjmp	.-928    	; 0x63a <vfprintf+0x5e>
 9da:	b6 01       	movw	r22, r12
 9dc:	80 e2       	ldi	r24, 0x20	; 32
 9de:	90 e0       	ldi	r25, 0x00	; 0
 9e0:	0e 94 31 09 	call	0x1262	; 0x1262 <fputc>
 9e4:	01 50       	subi	r16, 0x01	; 1
 9e6:	f6 cf       	rjmp	.-20     	; 0x9d4 <__stack+0xd5>
 9e8:	f6 01       	movw	r30, r12
 9ea:	87 81       	ldd	r24, Z+7	; 0x07
 9ec:	90 85       	ldd	r25, Z+8	; 0x08
 9ee:	02 c0       	rjmp	.+4      	; 0x9f4 <__stack+0xf5>
 9f0:	8f ef       	ldi	r24, 0xFF	; 255
 9f2:	9f ef       	ldi	r25, 0xFF	; 255
 9f4:	62 96       	adiw	r28, 0x12	; 18
 9f6:	0f b6       	in	r0, 0x3f	; 63
 9f8:	f8 94       	cli
 9fa:	de bf       	out	0x3e, r29	; 62
 9fc:	0f be       	out	0x3f, r0	; 63
 9fe:	cd bf       	out	0x3d, r28	; 61
 a00:	df 91       	pop	r29
 a02:	cf 91       	pop	r28
 a04:	1f 91       	pop	r17
 a06:	0f 91       	pop	r16
 a08:	ff 90       	pop	r15
 a0a:	ef 90       	pop	r14
 a0c:	df 90       	pop	r13
 a0e:	cf 90       	pop	r12
 a10:	bf 90       	pop	r11
 a12:	af 90       	pop	r10
 a14:	9f 90       	pop	r9
 a16:	8f 90       	pop	r8
 a18:	7f 90       	pop	r7
 a1a:	6f 90       	pop	r6
 a1c:	4f 90       	pop	r4
 a1e:	3f 90       	pop	r3
 a20:	2f 90       	pop	r2
 a22:	08 95       	ret

Disassembly of section .text.avrlibc:

000014a4 <strnlen>:
    14a4:	cf 92       	push	r12
    14a6:	df 92       	push	r13
    14a8:	ef 92       	push	r14
    14aa:	6b 01       	movw	r12, r22
    14ac:	e8 2e       	mov	r14, r24
    14ae:	a8 2f       	mov	r26, r24
    14b0:	cb 01       	movw	r24, r22
    14b2:	41 15       	cp	r20, r1
    14b4:	51 05       	cpc	r21, r1
    14b6:	31 f4       	brne	.+12     	; 0x14c4 <strnlen+0x20>
    14b8:	8c 19       	sub	r24, r12
    14ba:	9d 09       	sbc	r25, r13
    14bc:	ef 90       	pop	r14
    14be:	df 90       	pop	r13
    14c0:	cf 90       	pop	r12
    14c2:	08 95       	ret
    14c4:	fc 01       	movw	r30, r24
    14c6:	24 91       	lpm	r18, Z
    14c8:	a7 fd       	sbrc	r26, 7
    14ca:	20 81       	ld	r18, Z
    14cc:	22 23       	and	r18, r18
    14ce:	a1 f3       	breq	.-24     	; 0x14b8 <strnlen+0x14>
    14d0:	01 96       	adiw	r24, 0x01	; 1
    14d2:	a1 1d       	adc	r26, r1
    14d4:	41 50       	subi	r20, 0x01	; 1
    14d6:	51 09       	sbc	r21, r1
    14d8:	ec cf       	rjmp	.-40     	; 0x14b2 <strnlen+0xe>

Disassembly of section .text.avrlibc:

00001262 <fputc>:
    1262:	0f 93       	push	r16
    1264:	1f 93       	push	r17
    1266:	cf 93       	push	r28
    1268:	df 93       	push	r29
    126a:	fb 01       	movw	r30, r22
    126c:	24 81       	ldd	r18, Z+4	; 0x04
    126e:	21 fd       	sbrc	r18, 1
    1270:	03 c0       	rjmp	.+6      	; 0x1278 <fputc+0x16>
    1272:	8f ef       	ldi	r24, 0xFF	; 255
    1274:	9f ef       	ldi	r25, 0xFF	; 255
    1276:	2c c0       	rjmp	.+88     	; 0x12d0 <fputc+0x6e>
    1278:	22 ff       	sbrs	r18, 2
    127a:	16 c0       	rjmp	.+44     	; 0x12a8 <fputc+0x46>
    127c:	47 81       	ldd	r20, Z+7	; 0x07
    127e:	50 85       	ldd	r21, Z+8	; 0x08
    1280:	25 81       	ldd	r18, Z+5	; 0x05
    1282:	36 81       	ldd	r19, Z+6	; 0x06
    1284:	42 17       	cp	r20, r18
    1286:	53 07       	cpc	r21, r19
    1288:	44 f4       	brge	.+16     	; 0x129a <fputc+0x38>
    128a:	a0 81       	ld	r26, Z
    128c:	b1 81       	ldd	r27, Z+1	; 0x01
    128e:	9d 01       	movw	r18, r26
    1290:	2f 5f       	subi	r18, 0xFF	; 255
    1292:	3f 4f       	sbci	r19, 0xFF	; 255
    1294:	31 83       	std	Z+1, r19	; 0x01
    1296:	20 83       	st	Z, r18
    1298:	8c 93       	st	X, r24
    129a:	27 81       	ldd	r18, Z+7	; 0x07
    129c:	30 85       	ldd	r19, Z+8	; 0x08
    129e:	2f 5f       	subi	r18, 0xFF	; 255
    12a0:	3f 4f       	sbci	r19, 0xFF	; 255
    12a2:	30 87       	std	Z+8, r19	; 0x08
    12a4:	27 83       	std	Z+7, r18	; 0x07
    12a6:	14 c0       	rjmp	.+40     	; 0x12d0 <fputc+0x6e>
    12a8:	8b 01       	movw	r16, r22
    12aa:	ec 01       	movw	r28, r24
    12ac:	fb 01       	movw	r30, r22
    12ae:	01 84       	ldd	r0, Z+9	; 0x09
    12b0:	f2 85       	ldd	r31, Z+10	; 0x0a
    12b2:	e0 2d       	mov	r30, r0
    12b4:	09 95       	icall
    12b6:	89 2b       	or	r24, r25
    12b8:	e1 f6       	brne	.-72     	; 0x1272 <fputc+0x10>
    12ba:	d8 01       	movw	r26, r16
    12bc:	17 96       	adiw	r26, 0x07	; 7
    12be:	8d 91       	ld	r24, X+
    12c0:	9c 91       	ld	r25, X
    12c2:	18 97       	sbiw	r26, 0x08	; 8
    12c4:	01 96       	adiw	r24, 0x01	; 1
    12c6:	18 96       	adiw	r26, 0x08	; 8
    12c8:	9c 93       	st	X, r25
    12ca:	8e 93       	st	-X, r24
    12cc:	17 97       	sbiw	r26, 0x07	; 7
    12ce:	ce 01       	movw	r24, r28
    12d0:	df 91       	pop	r29
    12d2:	cf 91       	pop	r28
    12d4:	1f 91       	pop	r17
    12d6:	0f 91       	pop	r16
    12d8:	08 95       	ret

Disassembly of section .text.avrlibc:

00000fc2 <__ultoa_invert>:
     fc2:	fa 01       	movw	r30, r20
     fc4:	aa 27       	eor	r26, r26
     fc6:	28 30       	cpi	r18, 0x08	; 8
     fc8:	51 f1       	breq	.+84     	; 0x101e <__ultoa_invert+0x5c>
     fca:	20 31       	cpi	r18, 0x10	; 16
     fcc:	81 f1       	breq	.+96     	; 0x102e <__ultoa_invert+0x6c>
     fce:	e8 94       	clt
     fd0:	6f 93       	push	r22
     fd2:	6e 7f       	andi	r22, 0xFE	; 254
     fd4:	6e 5f       	subi	r22, 0xFE	; 254
     fd6:	7f 4f       	sbci	r23, 0xFF	; 255
     fd8:	8f 4f       	sbci	r24, 0xFF	; 255
     fda:	9f 4f       	sbci	r25, 0xFF	; 255
     fdc:	af 4f       	sbci	r26, 0xFF	; 255
     fde:	b1 e0       	ldi	r27, 0x01	; 1
     fe0:	3e d0       	rcall	.+124    	; 0x105e <__ultoa_invert+0x9c>
     fe2:	b4 e0       	ldi	r27, 0x04	; 4
     fe4:	3c d0       	rcall	.+120    	; 0x105e <__ultoa_invert+0x9c>
     fe6:	67 0f       	add	r22, r23
     fe8:	78 1f       	adc	r23, r24
     fea:	89 1f       	adc	r24, r25
     fec:	9a 1f       	adc	r25, r26
     fee:	a1 1d       	adc	r26, r1
     ff0:	68 0f       	add	r22, r24
     ff2:	79 1f       	adc	r23, r25
     ff4:	8a 1f       	adc	r24, r26
     ff6:	91 1d       	adc	r25, r1
     ff8:	a1 1d       	adc	r26, r1
     ffa:	6a 0f       	add	r22, r26
     ffc:	71 1d       	adc	r23, r1
     ffe:	81 1d       	adc	r24, r1
    1000:	91 1d       	adc	r25, r1
    1002:	a1 1d       	adc	r26, r1
    1004:	20 d0       	rcall	.+64     	; 0x1046 <__ultoa_invert+0x84>
    1006:	09 f4       	brne	.+2      	; 0x100a <__ultoa_invert+0x48>
    1008:	68 94       	set
    100a:	3f 91       	pop	r19
    100c:	2a e0       	ldi	r18, 0x0A	; 10
    100e:	26 9f       	mul	r18, r22
    1010:	11 24       	eor	r1, r1
    1012:	30 19       	sub	r19, r0
    1014:	30 5d       	subi	r19, 0xD0	; 208
    1016:	31 93       	st	Z+, r19
    1018:	de f6       	brtc	.-74     	; 0xfd0 <__ultoa_invert+0xe>
    101a:	cf 01       	movw	r24, r30
    101c:	08 95       	ret
    101e:	46 2f       	mov	r20, r22
    1020:	47 70       	andi	r20, 0x07	; 7
    1022:	40 5d       	subi	r20, 0xD0	; 208
    1024:	41 93       	st	Z+, r20
    1026:	b3 e0       	ldi	r27, 0x03	; 3
    1028:	0f d0       	rcall	.+30     	; 0x1048 <__ultoa_invert+0x86>
    102a:	c9 f7       	brne	.-14     	; 0x101e <__ultoa_invert+0x5c>
    102c:	f6 cf       	rjmp	.-20     	; 0x101a <__ultoa_invert+0x58>
    102e:	46 2f       	mov	r20, r22
    1030:	4f 70       	andi	r20, 0x0F	; 15
    1032:	40 5d       	subi	r20, 0xD0	; 208
    1034:	4a 33       	cpi	r20, 0x3A	; 58
    1036:	18 f0       	brcs	.+6      	; 0x103e <__ultoa_invert+0x7c>
    1038:	49 5d       	subi	r20, 0xD9	; 217
    103a:	31 fd       	sbrc	r19, 1
    103c:	40 52       	subi	r20, 0x20	; 32
    103e:	41 93       	st	Z+, r20
    1040:	02 d0       	rcall	.+4      	; 0x1046 <__ultoa_invert+0x84>
    1042:	a9 f7       	brne	.-22     	; 0x102e <__ultoa_invert+0x6c>
    1044:	ea cf       	rjmp	.-44     	; 0x101a <__ultoa_invert+0x58>
    1046:	b4 e0       	ldi	r27, 0x04	; 4
    1048:	a6 95       	lsr	r26
    104a:	97 95       	ror	r25
    104c:	87 95       	ror	r24
    104e:	77 95       	ror	r23
    1050:	67 95       	ror	r22
    1052:	ba 95       	dec	r27
    1054:	c9 f7       	brne	.-14     	; 0x1048 <__ultoa_invert+0x86>
    1056:	00 97       	sbiw	r24, 0x00	; 0
    1058:	61 05       	cpc	r22, r1
    105a:	71 05       	cpc	r23, r1
    105c:	08 95       	ret
    105e:	9b 01       	movw	r18, r22
    1060:	ac 01       	movw	r20, r24
    1062:	0a 2e       	mov	r0, r26
    1064:	06 94       	lsr	r0
    1066:	57 95       	ror	r21
    1068:	47 95       	ror	r20
    106a:	37 95       	ror	r19
    106c:	27 95       	ror	r18
    106e:	ba 95       	dec	r27
    1070:	c9 f7       	brne	.-14     	; 0x1064 <__ultoa_invert+0xa2>
    1072:	62 0f       	add	r22, r18
    1074:	73 1f       	adc	r23, r19
    1076:	84 1f       	adc	r24, r20
    1078:	95 1f       	adc	r25, r21
    107a:	a0 1d       	adc	r26, r0
    107c:	08 95       	ret

Disassembly of section .text.libgcc.div:

0000153e <__divmodsi4>:
    153e:	05 2e       	mov	r0, r21
    1540:	97 fb       	bst	r25, 7
    1542:	1e f4       	brtc	.+6      	; 0x154a <__divmodsi4+0xc>
    1544:	00 94       	com	r0
    1546:	0e 94 51 0b 	call	0x16a2	; 0x16a2 <__negsi2>
    154a:	57 fd       	sbrc	r21, 7
    154c:	07 d0       	rcall	.+14     	; 0x155c <__divmodsi4_neg2>
    154e:	0e 94 14 0a 	call	0x1428	; 0x1428 <__udivmodsi4>
    1552:	07 fc       	sbrc	r0, 7
    1554:	03 d0       	rcall	.+6      	; 0x155c <__divmodsi4_neg2>
    1556:	4e f4       	brtc	.+18     	; 0x156a <__divmodsi4_exit>
    1558:	0c 94 51 0b 	jmp	0x16a2	; 0x16a2 <__negsi2>

0000155c <__divmodsi4_neg2>:
    155c:	50 95       	com	r21
    155e:	40 95       	com	r20
    1560:	30 95       	com	r19
    1562:	21 95       	neg	r18
    1564:	3f 4f       	sbci	r19, 0xFF	; 255
    1566:	4f 4f       	sbci	r20, 0xFF	; 255
    1568:	5f 4f       	sbci	r21, 0xFF	; 255

0000156a <__divmodsi4_exit>:
    156a:	08 95       	ret

Disassembly of section .text.libgcc.div:

000016a2 <__negsi2>:
    16a2:	90 95       	com	r25
    16a4:	80 95       	com	r24
    16a6:	70 95       	com	r23
    16a8:	61 95       	neg	r22
    16aa:	7f 4f       	sbci	r23, 0xFF	; 255
    16ac:	8f 4f       	sbci	r24, 0xFF	; 255
    16ae:	9f 4f       	sbci	r25, 0xFF	; 255
    16b0:	08 95       	ret

Disassembly of section .text.libgcc.mul:

0000168c <__muluhisi3>:
    168c:	0e 94 12 0b 	call	0x1624	; 0x1624 <__umulhisi3>
    1690:	a5 9f       	mul	r26, r21
    1692:	90 0d       	add	r25, r0
    1694:	b4 9f       	mul	r27, r20
    1696:	90 0d       	add	r25, r0
    1698:	a4 9f       	mul	r26, r20
    169a:	80 0d       	add	r24, r0
    169c:	91 1d       	adc	r25, r1
    169e:	11 24       	eor	r1, r1
    16a0:	08 95       	ret

Disassembly of section .text.libgcc.mul:

000016b2 <__mulshisi3>:
    16b2:	b7 ff       	sbrs	r27, 7
    16b4:	0c 94 46 0b 	jmp	0x168c	; 0x168c <__muluhisi3>

000016b8 <__mulohisi3>:
    16b8:	0e 94 46 0b 	call	0x168c	; 0x168c <__muluhisi3>
    16bc:	82 1b       	sub	r24, r18
    16be:	93 0b       	sbc	r25, r19
    16c0:	08 95       	ret

Disassembly of section .text.libgcc.prologue:

0000146c <__prologue_saves__>:
    146c:	2f 92       	push	r2
    146e:	3f 92       	push	r3
    1470:	4f 92       	push	r4
    1472:	5f 92       	push	r5
    1474:	6f 92       	push	r6
    1476:	7f 92       	push	r7
    1478:	8f 92       	push	r8
    147a:	9f 92       	push	r9
    147c:	af 92       	push	r10
    147e:	bf 92       	push	r11
    1480:	cf 92       	push	r12
    1482:	df 92       	push	r13
    1484:	ef 92       	push	r14
    1486:	ff 92       	push	r15
    1488:	0f 93       	push	r16
    148a:	1f 93       	push	r17
    148c:	cf 93       	push	r28
    148e:	df 93       	push	r29
    1490:	cd b7       	in	r28, 0x3d	; 61
    1492:	de b7       	in	r29, 0x3e	; 62
    1494:	ca 1b       	sub	r28, r26
    1496:	db 0b       	sbc	r29, r27
    1498:	0f b6       	in	r0, 0x3f	; 63
    149a:	f8 94       	cli
    149c:	de bf       	out	0x3e, r29	; 62
    149e:	0f be       	out	0x3f, r0	; 63
    14a0:	cd bf       	out	0x3d, r28	; 61
    14a2:	09 94       	ijmp

Disassembly of section .text.libgcc.prologue:

000014da <__epilogue_restores__>:
    14da:	2a 88       	ldd	r2, Y+18	; 0x12
    14dc:	39 88       	ldd	r3, Y+17	; 0x11
    14de:	48 88       	ldd	r4, Y+16	; 0x10
    14e0:	5f 84       	ldd	r5, Y+15	; 0x0f
    14e2:	6e 84       	ldd	r6, Y+14	; 0x0e
    14e4:	7d 84       	ldd	r7, Y+13	; 0x0d
    14e6:	8c 84       	ldd	r8, Y+12	; 0x0c
    14e8:	9b 84       	ldd	r9, Y+11	; 0x0b
    14ea:	aa 84       	ldd	r10, Y+10	; 0x0a
    14ec:	b9 84       	ldd	r11, Y+9	; 0x09
    14ee:	c8 84       	ldd	r12, Y+8	; 0x08
    14f0:	df 80       	ldd	r13, Y+7	; 0x07
    14f2:	ee 80       	ldd	r14, Y+6	; 0x06
    14f4:	fd 80       	ldd	r15, Y+5	; 0x05
    14f6:	0c 81       	ldd	r16, Y+4	; 0x04
    14f8:	1b 81       	ldd	r17, Y+3	; 0x03
    14fa:	aa 81       	ldd	r26, Y+2	; 0x02
    14fc:	b9 81       	ldd	r27, Y+1	; 0x01
    14fe:	ce 0f       	add	r28, r30
    1500:	d1 1d       	adc	r29, r1
    1502:	0f b6       	in	r0, 0x3f	; 63
    1504:	f8 94       	cli
    1506:	de bf       	out	0x3e, r29	; 62
    1508:	0f be       	out	0x3f, r0	; 63
    150a:	cd bf       	out	0x3d, r28	; 61
    150c:	ed 01       	movw	r28, r26
    150e:	08 95       	ret

Disassembly of section .text.libgcc.div:

00001428 <__udivmodsi4>:
    1428:	a1 e2       	ldi	r26, 0x21	; 33
    142a:	1a 2e       	mov	r1, r26
    142c:	aa 1b       	sub	r26, r26
    142e:	bb 1b       	sub	r27, r27
    1430:	fd 01       	movw	r30, r26
    1432:	0d c0       	rjmp	.+26     	; 0x144e <__udivmodsi4_ep>

00001434 <__udivmodsi4_loop>:
    1434:	aa 1f       	adc	r26, r26
    1436:	bb 1f       	adc	r27, r27
    1438:	ee 1f       	adc	r30, r30
    143a:	ff 1f       	adc	r31, r31
    143c:	a2 17       	cp	r26, r18
    143e:	b3 07       	cpc	r27, r19
    1440:	e4 07       	cpc	r30, r20
    1442:	f5 07       	cpc	r31, r21
    1444:	20 f0       	brcs	.+8      	; 0x144e <__udivmodsi4_ep>
    1446:	a2 1b       	sub	r26, r18
    1448:	b3 0b       	sbc	r27, r19
    144a:	e4 0b       	sbc	r30, r20
    144c:	f5 0b       	sbc	r31, r21

0000144e <__udivmodsi4_ep>:
    144e:	66 1f       	adc	r22, r22
    1450:	77 1f       	adc	r23, r23
    1452:	88 1f       	adc	r24, r24
    1454:	99 1f       	adc	r25, r25
    1456:	1a 94       	dec	r1
    1458:	69 f7       	brne	.-38     	; 0x1434 <__udivmodsi4_loop>
    145a:	60 95       	com	r22
    145c:	70 95       	com	r23
    145e:	80 95       	com	r24
    1460:	90 95       	com	r25
    1462:	9b 01       	movw	r18, r22
    1464:	ac 01       	movw	r20, r24
    1466:	bd 01       	movw	r22, r26
    1468:	cf 01       	movw	r24, r30
    146a:	08 95       	ret

Disassembly of section .text.libgcc.mul:

00001624 <__umulhisi3>:
    1624:	a2 9f       	mul	r26, r18
    1626:	b0 01       	movw	r22, r0
    1628:	b3 9f       	mul	r27, r19
    162a:	c0 01       	movw	r24, r0
    162c:	a3 9f       	mul	r26, r19
    162e:	70 0d       	add	r23, r0
    1630:	81 1d       	adc	r24, r1
    1632:	11 24       	eor	r1, r1
    1634:	91 1d       	adc	r25, r1
    1636:	b2 9f       	mul	r27, r18
    1638:	70 0d       	add	r23, r0
    163a:	81 1d       	adc	r24, r1
    163c:	11 24       	eor	r1, r1
    163e:	91 1d       	adc	r25, r1
    1640:	08 95       	ret
